Archive member included to satisfy reference by file (symbol)

c:/program files/microchip/xc32/v4.00/bin/bin/../../lib/gcc/pic32c/8.3.1/../../../../pic32c/lib/thumb/v6-m/nofp\libpic32c.a(data_init.o)
                              build/Trinket_USB_2/production/_ext/1189347772/startup_xc32.o (__pic32c_data_initialization)
c:/program files/microchip/xc32/v4.00/bin/bin/../../lib/gcc/pic32c/8.3.1/../../../../pic32c/lib/thumb/v6-m/nofp\libm-emfloat.a(lib_a-_LOG10.o)
                              build/Trinket_USB_2/production/_ext/1360937237/ms8607.o (log10)
c:/program files/microchip/xc32/v4.00/bin/bin/../../lib/gcc/pic32c/8.3.1/../../../../pic32c/lib/thumb/v6-m/nofp\libm-emfloat.a(lib_a-_ILOGB.o)
                              c:/program files/microchip/xc32/v4.00/bin/bin/../../lib/gcc/pic32c/8.3.1/../../../../pic32c/lib/thumb/v6-m/nofp\libm-emfloat.a(lib_a-_LOG10.o) (ilogb)
c:/program files/microchip/xc32/v4.00/bin/bin/../../lib/gcc/pic32c/8.3.1/../../../../pic32c/lib/thumb/v6-m/nofp\libm-emfloat.a(lib_a-_LDEXP.o)
                              c:/program files/microchip/xc32/v4.00/bin/bin/../../lib/gcc/pic32c/8.3.1/../../../../pic32c/lib/thumb/v6-m/nofp\libm-emfloat.a(lib_a-_LOG10.o) (ldexp)
c:/program files/microchip/xc32/v4.00/bin/bin/../../lib/gcc/pic32c/8.3.1/../../../../pic32c/lib/thumb/v6-m/nofp\libm-emfloat.a(lib_a-_POW.o)
                              build/Trinket_USB_2/production/_ext/1360937237/ms8607.o (pow)
c:/program files/microchip/xc32/v4.00/bin/bin/../../lib/gcc/pic32c/8.3.1/../../../../pic32c/lib/thumb/v6-m/nofp\libm-emfloat.a(floatasmops_arm.o)
                              build/Trinket_USB_2/production/_ext/499838197/plib_sercom0_i2c_master.o (__aeabi_fadd)
c:/program files/microchip/xc32/v4.00/bin/bin/../../lib/gcc/pic32c/8.3.1/../../../../pic32c/lib/thumb/v6-m/nofp\libm-emfloat.a(lib_a-_EXP.o)
                              c:/program files/microchip/xc32/v4.00/bin/bin/../../lib/gcc/pic32c/8.3.1/../../../../pic32c/lib/thumb/v6-m/nofp\libm-emfloat.a(lib_a-_POW.o) (exp)
c:/program files/microchip/xc32/v4.00/bin/bin/../../lib/gcc/pic32c/8.3.1/../../../../pic32c/lib/thumb/v6-m/nofp\libm-emfloat.a(lib_a-_LOG.o)
                              c:/program files/microchip/xc32/v4.00/bin/bin/../../lib/gcc/pic32c/8.3.1/../../../../pic32c/lib/thumb/v6-m/nofp\libm-emfloat.a(lib_a-_LOG10.o) (log)
c:/program files/microchip/xc32/v4.00/bin/bin/../../lib/gcc/pic32c/8.3.1/../../../../pic32c/lib/thumb/v6-m/nofp\libm-emfloat.a(lib_a-_FREXP.o)
                              c:/program files/microchip/xc32/v4.00/bin/bin/../../lib/gcc/pic32c/8.3.1/../../../../pic32c/lib/thumb/v6-m/nofp\libm-emfloat.a(lib_a-_LOG.o) (frexp)
c:/program files/microchip/xc32/v4.00/bin/bin/../../lib/gcc/pic32c/8.3.1/../../../../pic32c/lib/thumb/v6-m/nofp\libc-musl.a(__libc_start_main.o)
                              build/Trinket_USB_2/production/_ext/1189347772/startup_xc32.o (__libc_init_array)
c:/program files/microchip/xc32/v4.00/bin/bin/../../lib/gcc/pic32c/8.3.1/../../../../pic32c/lib/thumb/v6-m/nofp\libc-musl.a(__errno_location.o)
                              c:/program files/microchip/xc32/v4.00/bin/bin/../../lib/gcc/pic32c/8.3.1/../../../../pic32c/lib/thumb/v6-m/nofp\libm-emfloat.a(lib_a-_POW.o) (__errno_val)
c:/program files/microchip/xc32/v4.00/bin/bin/../../lib/gcc/pic32c/8.3.1/../../../../pic32c/lib/thumb/v6-m/nofp\libc-musl.a(libc.o)
                              c:/program files/microchip/xc32/v4.00/bin/bin/../../lib/gcc/pic32c/8.3.1/../../../../pic32c/lib/thumb/v6-m/nofp\libc-musl.a(__libc_start_main.o) (__progname_full)
c:/program files/microchip/xc32/v4.00/bin/bin/../../lib/gcc/pic32c/8.3.1/../../../../pic32c/lib/thumb/v6-m/nofp\libc-musl.a(__sio_sprintf_fs.o)
                              (_sprintf_fFgGs)
c:/program files/microchip/xc32/v4.00/bin/bin/../../lib/gcc/pic32c/8.3.1/../../../../pic32c/lib/thumb/v6-m/nofp\libc-musl.a(__fmt_fp.o)
                              c:/program files/microchip/xc32/v4.00/bin/bin/../../lib/gcc/pic32c/8.3.1/../../../../pic32c/lib/thumb/v6-m/nofp\libc-musl.a(__sio_sprintf_fs.o) (__fmt_f_needed)
c:/program files/microchip/xc32/v4.00/bin/bin/../../lib/gcc/pic32c/8.3.1/../../../../pic32c/lib/thumb/v6-m/nofp\libc-musl.a(__fmt_s.o)
                              c:/program files/microchip/xc32/v4.00/bin/bin/../../lib/gcc/pic32c/8.3.1/../../../../pic32c/lib/thumb/v6-m/nofp\libc-musl.a(__sio_sprintf_fs.o) (__fmt_s_needed)
c:/program files/microchip/xc32/v4.00/bin/bin/../../lib/gcc/pic32c/8.3.1/../../../../pic32c/lib/thumb/v6-m/nofp\libc-musl.a(__printf_core.o)
                              c:/program files/microchip/xc32/v4.00/bin/bin/../../lib/gcc/pic32c/8.3.1/../../../../pic32c/lib/thumb/v6-m/nofp\libc-musl.a(__fmt_fp.o) (__pad)
c:/program files/microchip/xc32/v4.00/bin/bin/../../lib/gcc/pic32c/8.3.1/../../../../pic32c/lib/thumb/v6-m/nofp\libc-musl.a(atoi.o)
                              c:/program files/microchip/xc32/v4.00/bin/bin/../../lib/gcc/pic32c/8.3.1/../../../../pic32c/lib/thumb/v6-m/nofp\libc-musl.a(__printf_core.o) (atoi)
c:/program files/microchip/xc32/v4.00/bin/bin/../../lib/gcc/pic32c/8.3.1/../../../../pic32c/lib/thumb/v6-m/nofp\libc-musl.a(memcpy.o)
                              build/Trinket_USB_2/production/_ext/2108104030/drv_usbfsv1_device.o (memcpy)
c:/program files/microchip/xc32/v4.00/bin/bin/../../lib/gcc/pic32c/8.3.1/../../../../pic32c/lib/thumb/v6-m/nofp\libc-musl.a(memset.o)
                              build/Trinket_USB_2/production/_ext/2108104030/drv_usbfsv1_device.o (memset)
c:/program files/microchip/xc32/v4.00/bin/bin/../../lib/gcc/pic32c/8.3.1/../../../../pic32c/lib/thumb/v6-m/nofp\libc-musl.a(strlen.o)
                              c:/program files/microchip/xc32/v4.00/bin/bin/../../lib/gcc/pic32c/8.3.1/../../../../pic32c/lib/thumb/v6-m/nofp\libc-musl.a(__fmt_fp.o) (strlen)
c:/program files/microchip/xc32/v4.00/bin/bin/../../lib/gcc/pic32c/8.3.1/../../../../pic32c/lib/thumb/v6-m/nofp\libc-musl.a(strcpy.o)
                              c:/program files/microchip/xc32/v4.00/bin/bin/../../lib/gcc/pic32c/8.3.1/../../../../pic32c/lib/thumb/v6-m/nofp\libc-musl.a(__fmt_fp.o) (strcpy)
c:/program files/microchip/xc32/v4.00/bin/bin/../../lib/gcc/pic32c/8.3.1/../../../../pic32c/lib/thumb/v6-m/nofp\libc-musl.a(tolower.o)
                              c:/program files/microchip/xc32/v4.00/bin/bin/../../lib/gcc/pic32c/8.3.1/../../../../pic32c/lib/thumb/v6-m/nofp\libc-musl.a(__fmt_fp.o) (tolower)
c:/program files/microchip/xc32/v4.00/bin/bin/../../lib/gcc/pic32c/8.3.1/../../../../pic32c/lib/thumb/v6-m/nofp\libc-musl.a(__environ.o)
                              c:/program files/microchip/xc32/v4.00/bin/bin/../../lib/gcc/pic32c/8.3.1/../../../../pic32c/lib/thumb/v6-m/nofp\libc-musl.a(__libc_start_main.o) (__environ)
c:/program files/microchip/xc32/v4.00/bin/bin/../../lib/gcc/pic32c/8.3.1/../../../../pic32c/lib/thumb/v6-m/nofp\libc-musl.a(__int_vsprintf.o)
                              c:/program files/microchip/xc32/v4.00/bin/bin/../../lib/gcc/pic32c/8.3.1/../../../../pic32c/lib/thumb/v6-m/nofp\libc-musl.a(__sio_sprintf_fs.o) (__vsprintf)
c:/program files/microchip/xc32/v4.00/bin/bin/../../lib/gcc/pic32c/8.3.1/../../../../pic32c/lib/thumb/v6-m/nofp\libc-musl.a(__pop_float.o)
                              c:/program files/microchip/xc32/v4.00/bin/bin/../../lib/gcc/pic32c/8.3.1/../../../../pic32c/lib/thumb/v6-m/nofp\libc-musl.a(__printf_core.o) (__pop_float)
c:/program files/microchip/xc32/v4.00/bin/bin/../../lib/gcc/pic32c/8.3.1/../../../../pic32c/lib/thumb/v6-m/nofp\libc-musl.a(__pop_int.o)
                              c:/program files/microchip/xc32/v4.00/bin/bin/../../lib/gcc/pic32c/8.3.1/../../../../pic32c/lib/thumb/v6-m/nofp\libc-musl.a(__printf_core.o) (__pop_int)
c:/program files/microchip/xc32/v4.00/bin/bin/../../lib/gcc/pic32c/8.3.1/../../../../pic32c/lib/thumb/v6-m/nofp\libc-musl.a(__pop_ptr.o)
                              c:/program files/microchip/xc32/v4.00/bin/bin/../../lib/gcc/pic32c/8.3.1/../../../../pic32c/lib/thumb/v6-m/nofp\libc-musl.a(__printf_core.o) (__pop_ptr)
c:/program files/microchip/xc32/v4.00/bin/bin/../../lib/gcc/pic32c/8.3.1/../../../../pic32c/lib/thumb/v6-m/nofp\libc-musl.a(stpcpy.o)
                              c:/program files/microchip/xc32/v4.00/bin/bin/../../lib/gcc/pic32c/8.3.1/../../../../pic32c/lib/thumb/v6-m/nofp\libc-musl.a(strcpy.o) (__stpcpy)
c:/program files/microchip/xc32/v4.00/bin/bin/../../lib/gcc/pic32c/8.3.1/../../../../pic32c/lib/thumb/v6-m/nofp\libc-musl.a(__int_vsnprintf.o)
                              c:/program files/microchip/xc32/v4.00/bin/bin/../../lib/gcc/pic32c/8.3.1/../../../../pic32c/lib/thumb/v6-m/nofp\libc-musl.a(__int_vsprintf.o) (__vsnprintf)
c:/program files/microchip/xc32/v4.00/bin/bin/../../lib/gcc/pic32c/8.3.1/../../../../pic32c/lib/thumb/v6-m/nofp\libc-musl.a(__int_vfprintf.o)
                              c:/program files/microchip/xc32/v4.00/bin/bin/../../lib/gcc/pic32c/8.3.1/../../../../pic32c/lib/thumb/v6-m/nofp\libc-musl.a(__int_vsnprintf.o) (__vfprintf)
c:/program files/microchip/xc32/v4.00/bin/bin/../../lib/gcc/pic32c/8.3.1/../../../../pic32c/lib/thumb/v6-m/nofp\libm-emfloat.a(lib_a-_FLOOR.o)
                              c:/program files/microchip/xc32/v4.00/bin/bin/../../lib/gcc/pic32c/8.3.1/../../../../pic32c/lib/thumb/v6-m/nofp\libc-musl.a(__fmt_fp.o) (floor)
c:/program files/microchip/xc32/v4.00/bin/bin/../../lib/gcc/pic32c/8.3.1/../../../../pic32c/lib/thumb/v6-m/nofp\libm-emfloat.a(lib_a-_FMA.o)
                              c:/program files/microchip/xc32/v4.00/bin/bin/../../lib/gcc/pic32c/8.3.1/../../../../pic32c/lib/thumb/v6-m/nofp\libc-musl.a(__fmt_fp.o) (fma)
c:/program files/microchip/xc32/v4.00/bin/bin/../../lib/gcc/pic32c/8.3.1/thumb/v6-m/nofp\libgcc.a(_udivsi3.o)
                              build/Trinket_USB_2/production/_ext/499838197/plib_sercom0_i2c_master.o (__aeabi_uidiv)
c:/program files/microchip/xc32/v4.00/bin/bin/../../lib/gcc/pic32c/8.3.1/thumb/v6-m/nofp\libgcc.a(_divsi3.o)
                              build/Trinket_USB_2/production/_ext/1909065425/sys_time.o (__aeabi_idiv)
c:/program files/microchip/xc32/v4.00/bin/bin/../../lib/gcc/pic32c/8.3.1/thumb/v6-m/nofp\libgcc.a(_dvmd_tls.o)
                              c:/program files/microchip/xc32/v4.00/bin/bin/../../lib/gcc/pic32c/8.3.1/thumb/v6-m/nofp\libgcc.a(_udivsi3.o) (__aeabi_idiv0)
c:/program files/microchip/xc32/v4.00/bin/bin/../../lib/gcc/pic32c/8.3.1/thumb/v6-m/nofp\libgcc.a(_aeabi_uldivmod.o)
                              build/Trinket_USB_2/production/_ext/1909065425/sys_time.o (__aeabi_uldivmod)
c:/program files/microchip/xc32/v4.00/bin/bin/../../lib/gcc/pic32c/8.3.1/thumb/v6-m/nofp\libgcc.a(_muldi3.o)
                              build/Trinket_USB_2/production/_ext/1909065425/sys_time.o (__aeabi_lmul)
c:/program files/microchip/xc32/v4.00/bin/bin/../../lib/gcc/pic32c/8.3.1/thumb/v6-m/nofp\libgcc.a(_udivmoddi4.o)
                              c:/program files/microchip/xc32/v4.00/bin/bin/../../lib/gcc/pic32c/8.3.1/thumb/v6-m/nofp\libgcc.a(_aeabi_uldivmod.o) (__udivmoddi4)
c:/program files/microchip/xc32/v4.00/bin/bin/../../lib/gcc/pic32c/8.3.1/thumb/v6-m/nofp\libgcc.a(_clzdi2.o)
                              c:/program files/microchip/xc32/v4.00/bin/bin/../../lib/gcc/pic32c/8.3.1/thumb/v6-m/nofp\libgcc.a(_udivmoddi4.o) (__clzdi2)
c:/program files/microchip/xc32/v4.00/bin/bin/../../lib/gcc/pic32c/8.3.1/thumb/v6-m/nofp\libgcc.a(_clzsi2.o)
                              c:/program files/microchip/xc32/v4.00/bin/bin/../../lib/gcc/pic32c/8.3.1/thumb/v6-m/nofp\libgcc.a(_clzdi2.o) (__clzsi2)

Microchip PIC32 Memory-Usage Report

ROM Program-Memory Usage
section                    address  length [bytes]      (dec)  Description
-------                 ----------  -------------------------  -----------
.vectors                         0           0xb0         176   
.text                         0xb0           0x20          32  App's exec code 
.ARM.exidx                    0xd0            0x8           8   
.text._DRV_USBFSV1_DEVI       0xd8          0x628        1576   
.text.__fmt_fp               0x700          0x4bc        1212   
.text.DRV_USBFSV1_DEVIC      0xbbc          0x3d4         980   
.text.psensor_read_pres      0xf90          0x380         896   
.text.__printf_core         0x1310          0x324         804   
.text.APP_USB_Tasks         0x1634          0x24c         588   
.dinit                      0x1880          0x200         512   
.text                       0x1a80          0x1d4         468  App's exec code 
.text.__aeabi_dadd          0x1c54          0x1c8         456   
.text.SERCOM0_I2C_Inter     0x1e1c          0x1ac         428   
.text                       0x1fc8          0x1a4         420  App's exec code 
.text.DRV_USBFSV1_DEVIC     0x216c          0x194         404   
.text.__aeabi_dmul_aux      0x2300          0x18a         394   
.text.DRV_USBFSV1_DEVIC     0x248a            0x2           2   
.text.DRV_USBFSV1_DEVIC     0x248c          0x180         384   
.text._USB_DEVICE_Proce     0x260c          0x142         322   
.text.EVSYS_Initialize      0x274e            0x2           2   
.text.__aeabi_fadd          0x2750          0x13c         316   
.text.USB_DEVICE_CDC_Wr     0x288c          0x130         304   
.text.DRV_USBFSV1_Initi     0x29bc          0x124         292   
.text.DRV_USBFSV1_DEVIC     0x2ae0          0x120         288   
.text._USB_DEVICE_Contr     0x2c00          0x11c         284   
.text._USB_DEVICE_Event     0x2d1c          0x114         276   
.text                       0x2e30          0x114         276  App's exec code 
.text.DRV_USBFSV1_DEVIC     0x2f44          0x104         260   
.text.ms8607_read_tempe     0x3048          0x104         260   
.text.USB_DEVICE_CDC_Re     0x314c          0x100         256   
.text.USB_DEVICE_Initia     0x324c           0xfc         252   
.text._USB_DEVICE_Proce     0x3348           0xfc         252   
.text._USB_DEVICE_Ep0Re     0x3444           0xf8         248   
.text.USB_DEVICE_Tasks      0x353c           0xe8         232   
.text.SYS_TIME_PLIBCall     0x3624           0xe0         224   
.text.SYS_TIME_AddToLis     0x3704           0xdc         220   
.text.DRV_USBFSV1_Tasks     0x37e0           0xc8         200   
.text.__aeabi_ddiv          0x38a8           0xc4         196   
.text.SYS_TIME_TimerObj     0x396c           0xc0         192   
.text.SYS_TIME_HwTimerC     0x3a2c           0xbc         188   
.text._USB_DEVICE_CDC_I     0x3ae8           0xb8         184   
.text.__aeabi_fmul          0x3ba0           0xb8         184   
.text.floor                 0x3c58           0xb4         180   
.text.CLOCK_Initialize      0x3d0c           0xac         172   
.text.SYS_TIME_Initiali     0x3db8           0xac         172   
.text.DRV_USBFSV1_DEVIC     0x3e64           0xa4         164   
.text.__pop_int             0x3f08           0xa0         160   
.text.DRV_USBFSV1_DEVIC     0x3fa8           0x9c         156   
.text.__aeabi_fdiv          0x4044           0x94         148   
.rodata._USB_DEVICE_CDC     0x40d8           0x90         144   
.text.__pic32c_data_ini     0x4168           0x90         144   
.text._USB_DEVICE_GetSt     0x41f8           0x8a         138   
.text.Dummy_Handler         0x4282            0x2           2   
.text.DRV_USBFSV1_DEVIC     0x4284           0x88         136   
.text._USB_DEVICE_Proce     0x430c           0x86         134   
.text.NonMaskableInt_Ha     0x4392            0x2           2   
.text.ADC_Initialize        0x4394           0x84         132   
.text.APP_USB_USBDevice     0x4418           0x84         132   
.text.DRV_USBFSV1_Tasks     0x449c           0x7c         124   
.text._USB_DEVICE_Confi     0x4518           0x7c         124   
.text.APP_USB_USBDevice     0x4594           0x7c         124   
.text.psensor_conversio     0x4610           0x7c         124   
.text.__pad                 0x468c           0x78         120   
.text._USB_DEVICE_CDC_R     0x4704           0x70         112   
.text._USB_DEVICE_CDC_W     0x4774           0x70         112   
.text._USB_DEVICE_CDC_C     0x47e4           0x70         112   
.text._USB_DEVICE_Ep0Tr     0x4854           0x68         104   
.text._USB_DEVICE_CDC_A     0x48bc           0x68         104   
.text.__pop_ptr             0x4924           0x68         104   
.text.SYS_Initialize        0x498c           0x64         100   
.text.__aeabi_d2f           0x49f0           0x64         100   
.text.SERCOM0_I2C_Initi     0x4a54           0x60          96   
.text.SYS_TIME_RemoveFr     0x4ab4           0x60          96   
.text.SYS_TIME_TimerSta     0x4b14           0x60          96   
.text.__libc_start_init     0x4b74           0x5c          92   
.text.NVIC_Initialize       0x4bd0           0x58          88   
.text.SYS_TIME_Callback     0x4c28           0x58          88   
.text.SERCOM0_I2C_Initi     0x4c80           0x54          84   
.text.SYS_TIME_DelayMS      0x4cd4           0x54          84   
.text.APP_USB_Initializ     0x4d28           0x54          84   
.text                       0x4d7c           0x54          84  App's exec code 
.text._USB_DEVICE_Forwa     0x4dd0           0x50          80   
.text.__fmt_s               0x4e20           0x50          80   
.text.__vsnprintf           0x4e70           0x50          80   
.text._USB_DEVICE_DeIni     0x4ec0           0x4e          78   
.text._USB_DEVICE_GetFu     0x4f0e           0x4a          74   
.text.USB_DEVICE_Contro     0x4f58           0x4a          74   
.text.HardFault_Handler     0x4fa2            0x2           2   
.text                       0x4fa4           0x48          72  App's exec code 
.text.Reset_Handler         0x4fec           0x48          72   
.text.USB_DEVICE_Contro     0x5034           0x46          70   
.text.Dummy_App_Func        0x507a            0x2           2   
.text.SYS_TIME_TimerAdd     0x507c           0x44          68   
.rodata.fullSpeedConfig     0x50c0           0x44          68   
.text.__aeabi_f2d           0x5104           0x44          68   
.text.TC3_TimerInitiali     0x5148           0x40          64   
.text.SYS_TIME_GetTimer     0x5188           0x40          64   
.text.SYS_TIME_TimerDes     0x51c8           0x40          64   
.text._USB_DEVICE_FindE     0x5208           0x40          64   
.text.__aeabi_dcmpgt        0x5248           0x40          64   
.text.__aeabi_dcmplt        0x5288           0x40          64   
.text.atoi                  0x52c8           0x40          64   
.text                       0x5308           0x40          64  App's exec code 
.text.PORT_Initialize       0x5348           0x3c          60   
.text.SYS_INT_SourceDis     0x5384           0x3c          60   
.text.USB_DEVICE_Open       0x53c0           0x3c          60   
.text                       0x53fc           0x3c          60  App's exec code 
.text._DRV_USBFSV1_DEVI     0x5438           0x38          56   
.text.SERCOM0_I2C_Read      0x5470           0x38          56   
.text.SYS_TIME_UpdateTi     0x54a8           0x38          56   
.text._USB_DEVICE_CDC_D     0x54e0           0x38          56   
.text.SERCOM0_I2C_Write     0x5518           0x34          52   
.text.SYS_TIME_Resource     0x554c           0x34          52   
.rodata.sd002               0x5580           0x34          52   
.text.__aeabi_d2iz          0x55b4           0x34          52   
.text.__fmt_state           0x55e8           0x34          52   
.text.SYS_TIME_Resource     0x561c           0x30          48   
.text.__aeabi_dcmpeq        0x564c           0x30          48   
.text.__aeabi_d2uiz         0x567c           0x30          48   
.text.__aeabi_ul2f          0x56ac           0x30          48   
.text.DRV_USBFSV1_DEVIC     0x56dc           0x2e          46   
.text.delay_ms              0x570a           0x2e          46   
.text._USB_DEVICE_Redir     0x5738           0x2c          44   
.rodata.usbMasterDescri     0x5764           0x2c          44   
.rodata.APP_USB_USBDevi     0x5790           0x2c          44   
.text._DRV_USBFSV1_DEVI     0x57bc           0x2a          42   
.text.SYS_TIME_TimerPer     0x57e6           0x2a          42   
.text.USB_DEVICE_Endpoi     0x5810           0x2a          42   
.text.__pop_float           0x583a           0x2a          42   
.text.DRV_USBFSV1_Open      0x5864           0x28          40   
.rodata._USB_DEVICE_Eve     0x588c           0x28          40   
.text.USB_DEVICE_EventH     0x58b4           0x28          40   
.rodata.sd001               0x58dc           0x28          40   
.rodata.usbDevInitData      0x5904           0x28          40   
.text.APP_USB_StateRese     0x592c           0x28          40   
.text.hsensor_write_com     0x5954           0x28          40   
.text.psensor_write_com     0x597c           0x28          40   
.text.__aeabi_i2f           0x59a4           0x28          40   
.text.DRV_USBFSV1_DEVIC     0x59cc           0x26          38   
.text.USB_DEVICE_Detach     0x59f2           0x26          38   
.text.USB_DEVICE_IRPSub     0x5a18           0x26          38   
.text.__string_out          0x5a3e           0x26          38   
.text.TC3_TimerInterrup     0x5a64           0x24          36   
.text.SYS_TIME_GetElaps     0x5a88           0x24          36   
.rodata.drvUSBInit          0x5aac           0x24          36   
.rodata.APP_USB_USBDevi     0x5ad0           0x24          36   
.text.USB_DEVICE_Attach     0x5af4           0x22          34   
.text.USB_DEVICE_Endpoi     0x5b16           0x22          34   
.text.USB_DEVICE_Contro     0x5b38           0x22          34   
.text.USB_DEVICE_IRPCan     0x5b5a           0x22          34   
.text._USB_DEVICE_CDC_E     0x5b7c           0x22          34   
.text.__dummy               0x5b9e            0x2           2   
.text.DRV_USBFSV1_DEVIC     0x5ba0           0x20          32   
.text.TC3_Timer16bitCou     0x5bc0           0x20          32   
.rodata._USB_DEVICE_Pro     0x5be0           0x20          32   
.text.USB_DEVICE_CDC_Ev     0x5c00           0x20          32   
.text.__aeabi_l2f           0x5c20           0x20          32   
.text.__aeabi_ui2f          0x5c40           0x20          32   
.text.SYS_TIME_Counter6     0x5c60           0x1c          28   
.rodata.sysTimePlibAPI      0x5c7c           0x1c          28   
.text.SYS_Tasks             0x5c98           0x1c          28   
.rodata.APP_USB_Tasks       0x5cb4           0x1c          28   
.rodata                     0x5cd0           0x1c          28  Read-only const 
.text.ADC_Enable            0x5cec           0x18          24   
.text.TC3_TimerStart        0x5d04           0x18          24   
.text.TC3_TimerStop         0x5d1c           0x18          24   
.text.SYS_TIME_DelayIsC     0x5d34           0x18          24   
.text._USB_DEVICE_Clien     0x5d4c           0x18          24   
.text._USB_DEVICE_CDC_G     0x5d64           0x18          24   
.text.i2cEventHandler       0x5d7c           0x18          24   
.rodata                     0x5d94           0x18          24  Read-only const 
.text.ms8607_init           0x5dac           0x18          24   
.rodata.psensor_convers     0x5dc4           0x18          24   
.text.__vfprintf            0x5ddc           0x18          24   
.text                       0x5df4           0x18          24  App's exec code 
.text.i2c_master_read_p     0x5e0c           0x16          22   
.text.i2c_master_write_     0x5e22           0x16          22   
.text.i2c_master_write_     0x5e38           0x16          22   
.text.__wrap_sprintf        0x5e4e           0x16          22   
.text.NVIC_INT_Restore      0x5e64           0x14          20   
.text.TC3_Timer16bitPer     0x5e78           0x14          20   
.text.TC3_Timer16bitCom     0x5e8c           0x14          20   
.rodata.cdcFunctionDriv     0x5ea0           0x14          20   
.rodata.deviceDescripto     0x5eb4           0x14          20   
.text.__vsprintf            0x5ec8           0x14          20   
.text.DRV_USBFSV1_Close     0x5edc           0x12          18   
.text.DRV_USBFSV1_DEVIC     0x5eee           0x12          18   
.text.NVIC_INT_Disable      0x5f00           0x12          18   
.text.memcpy                0x5f12           0x12          18   
.text.stpcpy                0x5f24           0x12          18   
.text.DRV_USBFSV1_USB_H     0x5f38           0x10          16   
.text.DRV_USBFSV1_Clien     0x5f48           0x10          16   
.text.DRV_USBFSV1_DEVIC     0x5f58           0x10          16   
.text.SERCOM0_I2C_Error     0x5f68           0x10          16   
.rodata.funcRegistratio     0x5f78           0x10          16   
.text.__aeabi_fsub          0x5f88           0x10          16   
.rodata                     0x5f98           0x10          16  Read-only const 
.text.memset                0x5fa8           0x10          16   
.text.strlen                0x5fb8           0x10          16   
.text.fma                   0x5fc8           0x10          16   
.text.DRV_USBFSV1_DEVIC     0x5fd8            0xe          14   
.text.DRV_USBFSV1_DEVIC     0x5fe6            0xe          14   
.text.main                  0x5ff4            0xe          14   
.text.tolower               0x6002            0xe          14   
.text.NVMCTRL_Initializ     0x6010            0xc          12   
.text.SERCOM0_I2C_Callb     0x601c            0xc          12   
.text.TC3_TimerCallback     0x6028            0xc          12   
.rodata.cdcInit0            0x6034            0xc          12   
.rodata.stringDescripto     0x6040            0xc          12   
.text.APP_SENSOR_TimerE     0x604c            0xc          12   
.text.strcpy                0x6058            0xc          12   
.rodata.gDrvUSBFSV1Devi     0x6064            0x8           8   
.text.TC3_TimerFrequenc     0x606c            0x8           8   
.text.SYS_INT_Disable       0x6074            0x8           8   
.text.SYS_INT_Restore       0x607c            0x8           8   
.rodata.sysTimeInitData     0x6084            0x8           8   
.rodata                     0x608c            0x7           7  Read-only const 
.rodata.gDrvUSBFSV1Devi     0x6094            0x4           4   
.rodata.fullSpeedConfig     0x6098            0x4           4   
.rodata.sd000               0x609c            0x4           4   
.text.__dummy_fmt3          0x60a0            0x4           4   
.text.__dummy_fmt4          0x60a4            0x4           4   
.text                       0x60a8            0x4           4  App's exec code 
      Total ROM used  :      0x60a9       24745  9.4% of 0x40000
        --------------------------------------------------------------------------
         Total Program Memory used  :      0x60a9       24745  9.4% of 0x40000
        --------------------------------------------------------------------------


RAM Data-Memory Usage
section                    address  length [bytes]      (dec)  Description
-------                 ----------  -------------------------  -----------
.bss.cdcReadBuffer      0x20000000          0x200         512   
.bss.cdcWriteBuffer     0x20000200          0x200         512   
.bss.gDrvUSBObj         0x20000400          0x134         308   
.bss.usbDeviceInstance  0x20000534           0xec         236   
.bss.timers             0x20000620           0xa0         160   
.bss.gUSBDeviceCDCIRP   0x200006c0           0x6c         108   
.data.gDrvUSBFSV1Device 0x2000072c           0x50          80   
.bss                    0x2000077c           0x50          80  Uninitialized data 
.bss.gUSBDeviceCDCInsta 0x200007cc           0x44          68   
.bss.gDrvEP0BufferBank0 0x20000810           0x40          64   
.bss.gDrvEP0BufferBank1 0x20000850           0x40          64   
.bss.app_usbData        0x20000890           0x3c          60   
.bss.gSystemCounterObj  0x200008cc           0x38          56   
.bss.gDrvUSBEndpointObj 0x20000904           0x30          48   
.bss.sercom0I2CObj      0x20000934           0x2c          44   
.bss                    0x20000960           0x1c          28  Uninitialized data 
.bss.app_sensorData     0x2000097c           0x10          16   
.bss.eeprom_coeff       0x2000098c           0x10          16   
.bss.sysObj             0x2000099c            0xc          12   
.bss.gUSBDeviceCDCSeria 0x200009a8            0xa          10   
.data.gSysTimeTokenCoun 0x200009b2            0x2           2   
.bss.TC3_CallbackObject 0x200009b4            0x8           8   
.bss.humidity           0x200009bc            0x4           4   
.bss.pressure           0x200009c0            0x4           4   
.bss.temperature        0x200009c4            0x4           4   
.data.hsensor_conversio 0x200009c8            0x4           4   
.bss                    0x200009cc            0xc          12  Uninitialized data 
.bss.gUSBDeviceCdcCommo 0x200009d8            0x2           2   
.bss.isTemperatureRead  0x200009da            0x1           1   
.bss.hsensor_i2c_master 0x200009db            0x1           1   
.bss.psensor_coeff_read 0x200009dc            0x1           1   
.bss.psensor_resolution 0x200009dd            0x1           1   
         Total RAM used  :       0x9de        2526  7.7% of 0x8000
        --------------------------------------------------------------------------
            Total Data Memory used  :       0x9de        2526  7.7% of 0x8000
        --------------------------------------------------------------------------


Dynamic Data-Memory Reservation
section                    address  length [bytes]      (dec)  Description
-------                 ----------  -------------------------  -----------
heap                    0x200009e0          0x200         512  Reserved for heap 
stack                   0x20000bf8         0x73f8       29688  Reserved for stack 

        --------------------------------------------------------------------------

Discarded input sections

 .text          0x00000000        0x0 c:/program files/microchip/xc32/v4.00/bin/bin/../../lib/gcc/pic32c/8.3.1/thumb/v6-m/nofp/crti.o
 .data          0x00000000        0x0 c:/program files/microchip/xc32/v4.00/bin/bin/../../lib/gcc/pic32c/8.3.1/thumb/v6-m/nofp/crti.o
 .bss           0x00000000        0x0 c:/program files/microchip/xc32/v4.00/bin/bin/../../lib/gcc/pic32c/8.3.1/thumb/v6-m/nofp/crti.o
 .xc_stack_usage.hdr
                0x00000000        0xe c:/program files/microchip/xc32/v4.00/bin/bin/../../lib/gcc/pic32c/8.3.1/thumb/v6-m/nofp/crti.o
 .xc_stack_usage
                0x00000000       0x26 c:/program files/microchip/xc32/v4.00/bin/bin/../../lib/gcc/pic32c/8.3.1/thumb/v6-m/nofp/crti.o
 .data          0x00000000        0x4 c:/program files/microchip/xc32/v4.00/bin/bin/../../lib/gcc/pic32c/8.3.1/thumb/v6-m/nofp/crtbegin.o
 .xc_stack_usage
                0x00000000       0x3c c:/program files/microchip/xc32/v4.00/bin/bin/../../lib/gcc/pic32c/8.3.1/thumb/v6-m/nofp/crtbegin.o
 .xc_stack_usage.hdr
                0x00000000        0xe c:/program files/microchip/xc32/v4.00/bin/bin/../../lib/gcc/pic32c/8.3.1/thumb/v6-m/nofp/crtbegin.o
 .text          0x00000000        0x0 build/Trinket_USB_2/production/_ext/2108104030/drv_usbfsv1.o
 .data          0x00000000        0x0 build/Trinket_USB_2/production/_ext/2108104030/drv_usbfsv1.o
 .bss           0x00000000        0x0 build/Trinket_USB_2/production/_ext/2108104030/drv_usbfsv1.o
 .text.DRV_USBFSV1_Deinitialize
                0x00000000       0x54 build/Trinket_USB_2/production/_ext/2108104030/drv_usbfsv1.o
 .text.DRV_USBFSV1_Status
                0x00000000       0x20 build/Trinket_USB_2/production/_ext/2108104030/drv_usbfsv1.o
 .text.DRV_USBFSV1_OTHER_Handler
                0x00000000       0x10 build/Trinket_USB_2/production/_ext/2108104030/drv_usbfsv1.o
 .text.DRV_USBFSV1_SOF_HSOF_Handler
                0x00000000       0x10 build/Trinket_USB_2/production/_ext/2108104030/drv_usbfsv1.o
 .text.DRV_USBFSV1_TRCPT0_Handler
                0x00000000       0x10 build/Trinket_USB_2/production/_ext/2108104030/drv_usbfsv1.o
 .text.DRV_USBFSV1_TRCPT1_Handler
                0x00000000       0x10 build/Trinket_USB_2/production/_ext/2108104030/drv_usbfsv1.o
 .text          0x00000000        0x0 build/Trinket_USB_2/production/_ext/2108104030/drv_usbfsv1_device.o
 .data          0x00000000        0x0 build/Trinket_USB_2/production/_ext/2108104030/drv_usbfsv1_device.o
 .bss           0x00000000        0x0 build/Trinket_USB_2/production/_ext/2108104030/drv_usbfsv1_device.o
 .text._DRV_USBFSV1_DEVICE_EndpointObjectEnable
                0x00000000       0x12 build/Trinket_USB_2/production/_ext/2108104030/drv_usbfsv1_device.o
 .text          0x00000000        0x0 build/Trinket_USB_2/production/_ext/140414528/plib_adc.o
 .data          0x00000000        0x0 build/Trinket_USB_2/production/_ext/140414528/plib_adc.o
 .bss           0x00000000        0x0 build/Trinket_USB_2/production/_ext/140414528/plib_adc.o
 .text.ADC_Disable
                0x00000000       0x18 build/Trinket_USB_2/production/_ext/140414528/plib_adc.o
 .text.ADC_ChannelSelect
                0x00000000       0x24 build/Trinket_USB_2/production/_ext/140414528/plib_adc.o
 .text.ADC_ConversionStart
                0x00000000       0x18 build/Trinket_USB_2/production/_ext/140414528/plib_adc.o
 .text.ADC_ComparisonWindowSet
                0x00000000       0x24 build/Trinket_USB_2/production/_ext/140414528/plib_adc.o
 .text.ADC_WindowModeSet
                0x00000000       0x14 build/Trinket_USB_2/production/_ext/140414528/plib_adc.o
 .text.ADC_ConversionResultGet
                0x00000000        0xc build/Trinket_USB_2/production/_ext/140414528/plib_adc.o
 .text.ADC_InterruptsClear
                0x00000000        0xc build/Trinket_USB_2/production/_ext/140414528/plib_adc.o
 .text.ADC_InterruptsEnable
                0x00000000        0xc build/Trinket_USB_2/production/_ext/140414528/plib_adc.o
 .text.ADC_InterruptsDisable
                0x00000000        0xc build/Trinket_USB_2/production/_ext/140414528/plib_adc.o
 .text.ADC_ConversionStatusGet
                0x00000000       0x18 build/Trinket_USB_2/production/_ext/140414528/plib_adc.o
 .text          0x00000000        0x0 build/Trinket_USB_2/production/_ext/1796475310/plib_clock.o
 .data          0x00000000        0x0 build/Trinket_USB_2/production/_ext/1796475310/plib_clock.o
 .bss           0x00000000        0x0 build/Trinket_USB_2/production/_ext/1796475310/plib_clock.o
 .text          0x00000000        0x0 build/Trinket_USB_2/production/_ext/1798624796/plib_evsys.o
 .data          0x00000000        0x0 build/Trinket_USB_2/production/_ext/1798624796/plib_evsys.o
 .bss           0x00000000        0x0 build/Trinket_USB_2/production/_ext/1798624796/plib_evsys.o
 .text          0x00000000        0x0 build/Trinket_USB_2/production/_ext/58287938/plib_nvic.o
 .data          0x00000000        0x0 build/Trinket_USB_2/production/_ext/58287938/plib_nvic.o
 .bss           0x00000000        0x0 build/Trinket_USB_2/production/_ext/58287938/plib_nvic.o
 .text.NVIC_INT_Enable
                0x00000000        0x8 build/Trinket_USB_2/production/_ext/58287938/plib_nvic.o
 .text          0x00000000        0x0 build/Trinket_USB_2/production/_ext/1292982576/plib_nvmctrl.o
 .data          0x00000000        0x0 build/Trinket_USB_2/production/_ext/1292982576/plib_nvmctrl.o
 .bss           0x00000000        0x0 build/Trinket_USB_2/production/_ext/1292982576/plib_nvmctrl.o
 .text.NVMCTRL_CacheInvalidate
                0x00000000       0x10 build/Trinket_USB_2/production/_ext/1292982576/plib_nvmctrl.o
 .text.NVMCTRL_Read
                0x00000000       0x10 build/Trinket_USB_2/production/_ext/1292982576/plib_nvmctrl.o
 .text.NVMCTRL_PageBufferWrite
                0x00000000       0x14 build/Trinket_USB_2/production/_ext/1292982576/plib_nvmctrl.o
 .text.NVMCTRL_PageBufferCommit
                0x00000000       0x18 build/Trinket_USB_2/production/_ext/1292982576/plib_nvmctrl.o
 .text.NVMCTRL_PageWrite
                0x00000000       0x28 build/Trinket_USB_2/production/_ext/1292982576/plib_nvmctrl.o
 .text.NVMCTRL_RowErase
                0x00000000       0x18 build/Trinket_USB_2/production/_ext/1292982576/plib_nvmctrl.o
 .text.NVMCTRL_ErrorGet
                0x00000000       0x2c build/Trinket_USB_2/production/_ext/1292982576/plib_nvmctrl.o
 .text.NVMCTRL_IsBusy
                0x00000000       0x14 build/Trinket_USB_2/production/_ext/1292982576/plib_nvmctrl.o
 .text.NVMCTRL_RegionLock
                0x00000000       0x14 build/Trinket_USB_2/production/_ext/1292982576/plib_nvmctrl.o
 .text.NVMCTRL_RegionUnlock
                0x00000000       0x14 build/Trinket_USB_2/production/_ext/1292982576/plib_nvmctrl.o
 .text          0x00000000        0x0 build/Trinket_USB_2/production/_ext/58341089/plib_port.o
 .data          0x00000000        0x0 build/Trinket_USB_2/production/_ext/58341089/plib_port.o
 .bss           0x00000000        0x0 build/Trinket_USB_2/production/_ext/58341089/plib_port.o
 .text.PORT_GroupRead
                0x00000000        0x4 build/Trinket_USB_2/production/_ext/58341089/plib_port.o
 .text.PORT_GroupWrite
                0x00000000        0xc build/Trinket_USB_2/production/_ext/58341089/plib_port.o
 .text.PORT_GroupLatchRead
                0x00000000        0x4 build/Trinket_USB_2/production/_ext/58341089/plib_port.o
 .text.PORT_GroupSet
                0x00000000        0x4 build/Trinket_USB_2/production/_ext/58341089/plib_port.o
 .text.PORT_GroupClear
                0x00000000        0x4 build/Trinket_USB_2/production/_ext/58341089/plib_port.o
 .text.PORT_GroupToggle
                0x00000000        0x4 build/Trinket_USB_2/production/_ext/58341089/plib_port.o
 .text.PORT_GroupInputEnable
                0x00000000        0x4 build/Trinket_USB_2/production/_ext/58341089/plib_port.o
 .text.PORT_GroupOutputEnable
                0x00000000        0x4 build/Trinket_USB_2/production/_ext/58341089/plib_port.o
 .text.PORT_PinPeripheralFunctionConfig
                0x00000000       0x48 build/Trinket_USB_2/production/_ext/58341089/plib_port.o
 .text.PORT_PinGPIOConfig
                0x00000000       0x20 build/Trinket_USB_2/production/_ext/58341089/plib_port.o
 .text          0x00000000        0x0 build/Trinket_USB_2/production/_ext/499838197/plib_sercom0_i2c_master.o
 .data          0x00000000        0x0 build/Trinket_USB_2/production/_ext/499838197/plib_sercom0_i2c_master.o
 .bss           0x00000000        0x0 build/Trinket_USB_2/production/_ext/499838197/plib_sercom0_i2c_master.o
 .text.SERCOM0_I2C_TransferSetup
                0x00000000      0x10c build/Trinket_USB_2/production/_ext/499838197/plib_sercom0_i2c_master.o
 .text.SERCOM0_I2C_WriteRead
                0x00000000       0x38 build/Trinket_USB_2/production/_ext/499838197/plib_sercom0_i2c_master.o
 .text.SERCOM0_I2C_IsBusy
                0x00000000       0x28 build/Trinket_USB_2/production/_ext/499838197/plib_sercom0_i2c_master.o
 .text          0x00000000        0x0 build/Trinket_USB_2/production/_ext/1390003407/plib_tc3.o
 .data          0x00000000        0x0 build/Trinket_USB_2/production/_ext/1390003407/plib_tc3.o
 .bss           0x00000000        0x0 build/Trinket_USB_2/production/_ext/1390003407/plib_tc3.o
 .text.TC3_TimerCommandSet
                0x00000000       0x18 build/Trinket_USB_2/production/_ext/1390003407/plib_tc3.o
 .text.TC3_Timer16bitCounterSet
                0x00000000       0x14 build/Trinket_USB_2/production/_ext/1390003407/plib_tc3.o
 .text.TC3_Timer16bitPeriodGet
                0x00000000       0x20 build/Trinket_USB_2/production/_ext/1390003407/plib_tc3.o
 .text          0x00000000        0x0 build/Trinket_USB_2/production/_ext/1578018698/xc32_monitor.o
 .data          0x00000000        0x0 build/Trinket_USB_2/production/_ext/1578018698/xc32_monitor.o
 .bss           0x00000000        0x0 build/Trinket_USB_2/production/_ext/1578018698/xc32_monitor.o
 .text._mon_getc
                0x00000000        0x4 build/Trinket_USB_2/production/_ext/1578018698/xc32_monitor.o
 .text._mon_putc
                0x00000000        0x2 build/Trinket_USB_2/production/_ext/1578018698/xc32_monitor.o
 .debug_info    0x00000000      0x2e2 build/Trinket_USB_2/production/_ext/1578018698/xc32_monitor.o
 .debug_abbrev  0x00000000       0x80 build/Trinket_USB_2/production/_ext/1578018698/xc32_monitor.o
 .debug_loc     0x00000000       0x25 build/Trinket_USB_2/production/_ext/1578018698/xc32_monitor.o
 .debug_aranges
                0x00000000       0x28 build/Trinket_USB_2/production/_ext/1578018698/xc32_monitor.o
 .debug_ranges  0x00000000       0x18 build/Trinket_USB_2/production/_ext/1578018698/xc32_monitor.o
 .debug_line    0x00000000       0x83 build/Trinket_USB_2/production/_ext/1578018698/xc32_monitor.o
 .debug_str     0x00000000        0x0 build/Trinket_USB_2/production/_ext/1578018698/xc32_monitor.o
 .comment       0x00000000       0x54 build/Trinket_USB_2/production/_ext/1578018698/xc32_monitor.o
 .debug_frame   0x00000000       0x30 build/Trinket_USB_2/production/_ext/1578018698/xc32_monitor.o
 .ARM.attributes
                0x00000000       0x2c build/Trinket_USB_2/production/_ext/1578018698/xc32_monitor.o
 .text          0x00000000        0x0 build/Trinket_USB_2/production/_ext/1961919639/sys_int.o
 .data          0x00000000        0x0 build/Trinket_USB_2/production/_ext/1961919639/sys_int.o
 .bss           0x00000000        0x0 build/Trinket_USB_2/production/_ext/1961919639/sys_int.o
 .text.SYS_INT_Enable
                0x00000000        0x8 build/Trinket_USB_2/production/_ext/1961919639/sys_int.o
 .text.SYS_INT_SourceRestore
                0x00000000       0x1c build/Trinket_USB_2/production/_ext/1961919639/sys_int.o
 .text          0x00000000        0x0 build/Trinket_USB_2/production/_ext/1909065425/sys_time.o
 .data          0x00000000        0x0 build/Trinket_USB_2/production/_ext/1909065425/sys_time.o
 .bss           0x00000000        0x0 build/Trinket_USB_2/production/_ext/1909065425/sys_time.o
 .text.SYS_TIME_Deinitialize
                0x00000000       0x30 build/Trinket_USB_2/production/_ext/1909065425/sys_time.o
 .text.SYS_TIME_Status
                0x00000000       0x18 build/Trinket_USB_2/production/_ext/1909065425/sys_time.o
 .text.SYS_TIME_FrequencyGet
                0x00000000        0xc build/Trinket_USB_2/production/_ext/1909065425/sys_time.o
 .text.SYS_TIME_Counter64Get
                0x00000000       0x50 build/Trinket_USB_2/production/_ext/1909065425/sys_time.o
 .text.SYS_TIME_CounterGet
                0x00000000        0x8 build/Trinket_USB_2/production/_ext/1909065425/sys_time.o
 .text.SYS_TIME_CounterSet
                0x00000000       0x20 build/Trinket_USB_2/production/_ext/1909065425/sys_time.o
 .text.SYS_TIME_CountToUS
                0x00000000       0x3c build/Trinket_USB_2/production/_ext/1909065425/sys_time.o
 .text.SYS_TIME_CountToMS
                0x00000000       0x20 build/Trinket_USB_2/production/_ext/1909065425/sys_time.o
 .text.SYS_TIME_USToCount
                0x00000000       0x24 build/Trinket_USB_2/production/_ext/1909065425/sys_time.o
 .text.SYS_TIME_MSToCount
                0x00000000       0x20 build/Trinket_USB_2/production/_ext/1909065425/sys_time.o
 .text.SYS_TIME_TimerCreate
                0x00000000       0x20 build/Trinket_USB_2/production/_ext/1909065425/sys_time.o
 .text.SYS_TIME_TimerReload
                0x00000000       0x9c build/Trinket_USB_2/production/_ext/1909065425/sys_time.o
 .text.SYS_TIME_TimerStop
                0x00000000       0x40 build/Trinket_USB_2/production/_ext/1909065425/sys_time.o
 .text.SYS_TIME_TimerCounterGet
                0x00000000       0x88 build/Trinket_USB_2/production/_ext/1909065425/sys_time.o
 .text.SYS_TIME_DelayUS
                0x00000000       0x54 build/Trinket_USB_2/production/_ext/1909065425/sys_time.o
 .text.SYS_TIME_CallbackRegisterUS
                0x00000000       0x5c build/Trinket_USB_2/production/_ext/1909065425/sys_time.o
 .text          0x00000000        0x0 build/Trinket_USB_2/production/_ext/1390297478/usb_device.o
 .data          0x00000000        0x0 build/Trinket_USB_2/production/_ext/1390297478/usb_device.o
 .bss           0x00000000        0x0 build/Trinket_USB_2/production/_ext/1390297478/usb_device.o
 .text.USB_DEVICE_Status
                0x00000000       0x20 build/Trinket_USB_2/production/_ext/1390297478/usb_device.o
 .text.USB_DEVICE_Deinitialize
                0x00000000       0x1c build/Trinket_USB_2/production/_ext/1390297478/usb_device.o
 .text.USB_DEVICE_EndpointIsEnabled
                0x00000000       0x20 build/Trinket_USB_2/production/_ext/1390297478/usb_device.o
 .text.USB_DEVICE_EndpointStall
                0x00000000       0x1c build/Trinket_USB_2/production/_ext/1390297478/usb_device.o
 .text.USB_DEVICE_EndpointStallClear
                0x00000000       0x1c build/Trinket_USB_2/production/_ext/1390297478/usb_device.o
 .text.USB_DEVICE_EndpointIsStalled
                0x00000000       0x20 build/Trinket_USB_2/production/_ext/1390297478/usb_device.o
 .text.USB_DEVICE_IsSuspended
                0x00000000       0x16 build/Trinket_USB_2/production/_ext/1390297478/usb_device.o
 .text.USB_DEVICE_StateGet
                0x00000000       0x16 build/Trinket_USB_2/production/_ext/1390297478/usb_device.o
 .text.USB_DEVICE_Close
                0x00000000       0x16 build/Trinket_USB_2/production/_ext/1390297478/usb_device.o
 .text.USB_DEVICE_ClientStatusGet
                0x00000000       0x14 build/Trinket_USB_2/production/_ext/1390297478/usb_device.o
 .text.USB_DEVICE_ActiveConfigurationGet
                0x00000000       0x14 build/Trinket_USB_2/production/_ext/1390297478/usb_device.o
 .text.USB_DEVICE_ActiveSpeedGet
                0x00000000       0x16 build/Trinket_USB_2/production/_ext/1390297478/usb_device.o
 .text.USB_DEVICE_PowerStateSet
                0x00000000       0x1c build/Trinket_USB_2/production/_ext/1390297478/usb_device.o
 .text.USB_DEVICE_RemoteWakeupStatusGet
                0x00000000       0x14 build/Trinket_USB_2/production/_ext/1390297478/usb_device.o
 .text.USB_DEVICE_RemoteWakeupStop
                0x00000000       0x18 build/Trinket_USB_2/production/_ext/1390297478/usb_device.o
 .text.USB_DEVICE_RemoteWakeupStart
                0x00000000       0x18 build/Trinket_USB_2/production/_ext/1390297478/usb_device.o
 .text.USB_DEVICE_IRPCancel
                0x00000000       0x22 build/Trinket_USB_2/production/_ext/1390297478/usb_device.o
 .text._USB_DEVICE_EndpointMutexCreateFunction
                0x00000000       0x14 build/Trinket_USB_2/production/_ext/1390297478/usb_device.o
 .text._USB_DEVICE_EndpointMutexDeleteFunction
                0x00000000        0x8 build/Trinket_USB_2/production/_ext/1390297478/usb_device.o
 .text._USB_DEVICE_GetStringDescriptorRequestProcessAdvanced
                0x00000000       0x7c build/Trinket_USB_2/production/_ext/1390297478/usb_device.o
 .text._USB_DEVICE_Other_Speed_Descriptor_Request
                0x00000000        0x2 build/Trinket_USB_2/production/_ext/1390297478/usb_device.o
 .text          0x00000000        0x0 build/Trinket_USB_2/production/_ext/1390297478/usb_device_cdc.o
 .data          0x00000000        0x0 build/Trinket_USB_2/production/_ext/1390297478/usb_device_cdc.o
 .bss           0x00000000        0x0 build/Trinket_USB_2/production/_ext/1390297478/usb_device_cdc.o
 .text._USB_DEVICE_CDC_SerialStateSendIRPCallback
                0x00000000       0x70 build/Trinket_USB_2/production/_ext/1390297478/usb_device_cdc.o
 .text.USB_DEVICE_CDC_ReadPacketSizeGet
                0x00000000       0x14 build/Trinket_USB_2/production/_ext/1390297478/usb_device_cdc.o
 .text.USB_DEVICE_CDC_WritePacketSizeGet
                0x00000000       0x14 build/Trinket_USB_2/production/_ext/1390297478/usb_device_cdc.o
 .text.USB_DEVICE_CDC_SerialStateNotificationSend
                0x00000000      0x114 build/Trinket_USB_2/production/_ext/1390297478/usb_device_cdc.o
 .text          0x00000000        0x0 build/Trinket_USB_2/production/_ext/1390297478/usb_device_cdc_acm.o
 .data          0x00000000        0x0 build/Trinket_USB_2/production/_ext/1390297478/usb_device_cdc_acm.o
 .bss           0x00000000        0x0 build/Trinket_USB_2/production/_ext/1390297478/usb_device_cdc_acm.o
 .text          0x00000000        0x0 build/Trinket_USB_2/production/_ext/1189347772/initialization.o
 .data          0x00000000        0x0 build/Trinket_USB_2/production/_ext/1189347772/initialization.o
 .bss           0x00000000        0x0 build/Trinket_USB_2/production/_ext/1189347772/initialization.o
 .text          0x00000000        0x0 build/Trinket_USB_2/production/_ext/1189347772/interrupts.o
 .data          0x00000000        0x0 build/Trinket_USB_2/production/_ext/1189347772/interrupts.o
 .bss           0x00000000        0x0 build/Trinket_USB_2/production/_ext/1189347772/interrupts.o
 .text          0x00000000        0x0 build/Trinket_USB_2/production/_ext/1189347772/exceptions.o
 .data          0x00000000        0x0 build/Trinket_USB_2/production/_ext/1189347772/exceptions.o
 .bss           0x00000000        0x0 build/Trinket_USB_2/production/_ext/1189347772/exceptions.o
 .text          0x00000000        0x0 build/Trinket_USB_2/production/_ext/1189347772/startup_xc32.o
 .data          0x00000000        0x0 build/Trinket_USB_2/production/_ext/1189347772/startup_xc32.o
 .bss           0x00000000        0x0 build/Trinket_USB_2/production/_ext/1189347772/startup_xc32.o
 .text          0x00000000        0x0 build/Trinket_USB_2/production/_ext/1189347772/libc_syscalls.o
 .data          0x00000000        0x0 build/Trinket_USB_2/production/_ext/1189347772/libc_syscalls.o
 .bss           0x00000000        0x0 build/Trinket_USB_2/production/_ext/1189347772/libc_syscalls.o
 .text._exit    0x00000000        0x2 build/Trinket_USB_2/production/_ext/1189347772/libc_syscalls.o
 .debug_info    0x00000000      0x3ab build/Trinket_USB_2/production/_ext/1189347772/libc_syscalls.o
 .debug_abbrev  0x00000000       0x8d build/Trinket_USB_2/production/_ext/1189347772/libc_syscalls.o
 .debug_loc     0x00000000       0x15 build/Trinket_USB_2/production/_ext/1189347772/libc_syscalls.o
 .debug_aranges
                0x00000000       0x20 build/Trinket_USB_2/production/_ext/1189347772/libc_syscalls.o
 .debug_ranges  0x00000000       0x10 build/Trinket_USB_2/production/_ext/1189347772/libc_syscalls.o
 .debug_line    0x00000000       0xf3 build/Trinket_USB_2/production/_ext/1189347772/libc_syscalls.o
 .debug_str     0x00000000        0x0 build/Trinket_USB_2/production/_ext/1189347772/libc_syscalls.o
 .comment       0x00000000       0x54 build/Trinket_USB_2/production/_ext/1189347772/libc_syscalls.o
 .debug_frame   0x00000000       0x20 build/Trinket_USB_2/production/_ext/1189347772/libc_syscalls.o
 .ARM.attributes
                0x00000000       0x2c build/Trinket_USB_2/production/_ext/1189347772/libc_syscalls.o
 .text          0x00000000        0x0 build/Trinket_USB_2/production/_ext/1189347772/usb_device_init_data.o
 .data          0x00000000        0x0 build/Trinket_USB_2/production/_ext/1189347772/usb_device_init_data.o
 .bss           0x00000000        0x0 build/Trinket_USB_2/production/_ext/1189347772/usb_device_init_data.o
 .text          0x00000000        0x0 build/Trinket_USB_2/production/_ext/1189347772/tasks.o
 .data          0x00000000        0x0 build/Trinket_USB_2/production/_ext/1189347772/tasks.o
 .bss           0x00000000        0x0 build/Trinket_USB_2/production/_ext/1189347772/tasks.o
 .text          0x00000000        0x0 build/Trinket_USB_2/production/_ext/1360937237/main.o
 .data          0x00000000        0x0 build/Trinket_USB_2/production/_ext/1360937237/main.o
 .bss           0x00000000        0x0 build/Trinket_USB_2/production/_ext/1360937237/main.o
 .text          0x00000000        0x0 build/Trinket_USB_2/production/_ext/1360937237/app_usb.o
 .data          0x00000000        0x0 build/Trinket_USB_2/production/_ext/1360937237/app_usb.o
 .bss           0x00000000        0x0 build/Trinket_USB_2/production/_ext/1360937237/app_usb.o
 .text          0x00000000        0x0 build/Trinket_USB_2/production/_ext/1360937237/i2c.o
 .data          0x00000000        0x0 build/Trinket_USB_2/production/_ext/1360937237/i2c.o
 .bss           0x00000000        0x0 build/Trinket_USB_2/production/_ext/1360937237/i2c.o
 .text          0x00000000        0x0 build/Trinket_USB_2/production/_ext/1360937237/ms8607.o
 .data          0x00000000        0x0 build/Trinket_USB_2/production/_ext/1360937237/ms8607.o
 .bss           0x00000000        0x0 build/Trinket_USB_2/production/_ext/1360937237/ms8607.o
 .text.hsensor_read_user_register
                0x00000000       0x40 build/Trinket_USB_2/production/_ext/1360937237/ms8607.o
 .text.hsensor_write_user_register
                0x00000000       0x4c build/Trinket_USB_2/production/_ext/1360937237/ms8607.o
 .text.ms8607_is_connected
                0x00000000       0x3a build/Trinket_USB_2/production/_ext/1360937237/ms8607.o
 .text.ms8607_reset
                0x00000000       0x28 build/Trinket_USB_2/production/_ext/1360937237/ms8607.o
 .text.ms8607_set_humidity_resolution
                0x00000000       0x68 build/Trinket_USB_2/production/_ext/1360937237/ms8607.o
 .text.ms8607_set_humidity_i2c_master_mode
                0x00000000        0xc build/Trinket_USB_2/production/_ext/1360937237/ms8607.o
 .text.ms8607_get_battery_status
                0x00000000       0x2a build/Trinket_USB_2/production/_ext/1360937237/ms8607.o
 .text.ms8607_enable_heater
                0x00000000       0x30 build/Trinket_USB_2/production/_ext/1360937237/ms8607.o
 .text.ms8607_disable_heater
                0x00000000       0x30 build/Trinket_USB_2/production/_ext/1360937237/ms8607.o
 .text.ms8607_get_heater_status
                0x00000000       0x2a build/Trinket_USB_2/production/_ext/1360937237/ms8607.o
 .text.ms8607_get_compensated_humidity
                0x00000000       0x38 build/Trinket_USB_2/production/_ext/1360937237/ms8607.o
 .text.ms8607_get_dew_point
                0x00000000       0xa8 build/Trinket_USB_2/production/_ext/1360937237/ms8607.o
 .text.ms8607_set_pressure_resolution
                0x00000000        0xc build/Trinket_USB_2/production/_ext/1360937237/ms8607.o
 .bss.hsensor_heater_on
                0x00000000        0x1 build/Trinket_USB_2/production/_ext/1360937237/ms8607.o
 .text          0x00000000        0x0 c:/program files/microchip/xc32/v4.00/bin/bin/../../lib/gcc/pic32c/8.3.1/../../../../pic32c/lib/thumb/v6-m/nofp\libpic32c.a(data_init.o)
 .data          0x00000000        0x0 c:/program files/microchip/xc32/v4.00/bin/bin/../../lib/gcc/pic32c/8.3.1/../../../../pic32c/lib/thumb/v6-m/nofp\libpic32c.a(data_init.o)
 .xc_stack_usage
                0x00000000       0x2a c:/program files/microchip/xc32/v4.00/bin/bin/../../lib/gcc/pic32c/8.3.1/../../../../pic32c/lib/thumb/v6-m/nofp\libpic32c.a(data_init.o)
 .xc_stack_usage.hdr
                0x00000000        0xe c:/program files/microchip/xc32/v4.00/bin/bin/../../lib/gcc/pic32c/8.3.1/../../../../pic32c/lib/thumb/v6-m/nofp\libpic32c.a(data_init.o)
 .text          0x00000000        0x0 c:/program files/microchip/xc32/v4.00/bin/bin/../../lib/gcc/pic32c/8.3.1/../../../../pic32c/lib/thumb/v6-m/nofp\libm-emfloat.a(lib_a-_LOG10.o)
 .data          0x00000000        0x0 c:/program files/microchip/xc32/v4.00/bin/bin/../../lib/gcc/pic32c/8.3.1/../../../../pic32c/lib/thumb/v6-m/nofp\libm-emfloat.a(lib_a-_LOG10.o)
 .bss           0x00000000        0x0 c:/program files/microchip/xc32/v4.00/bin/bin/../../lib/gcc/pic32c/8.3.1/../../../../pic32c/lib/thumb/v6-m/nofp\libm-emfloat.a(lib_a-_LOG10.o)
 .xc_stack_usage
                0x00000000      0x298 c:/program files/microchip/xc32/v4.00/bin/bin/../../lib/gcc/pic32c/8.3.1/../../../../pic32c/lib/thumb/v6-m/nofp\libm-emfloat.a(lib_a-_LOG10.o)
 .text.__SEGGER_RTL_float64_cdiv
                0x00000000      0x2bc c:/program files/microchip/xc32/v4.00/bin/bin/../../lib/gcc/pic32c/8.3.1/../../../../pic32c/lib/thumb/v6-m/nofp\libm-emfloat.a(lib_a-_LOG10.o)
 .text.__SEGGER_RTL_float64_cmplx
                0x00000000       0x14 c:/program files/microchip/xc32/v4.00/bin/bin/../../lib/gcc/pic32c/8.3.1/../../../../pic32c/lib/thumb/v6-m/nofp\libm-emfloat.a(lib_a-_LOG10.o)
 .text.__mulsc3
                0x00000000      0x24c c:/program files/microchip/xc32/v4.00/bin/bin/../../lib/gcc/pic32c/8.3.1/../../../../pic32c/lib/thumb/v6-m/nofp\libm-emfloat.a(lib_a-_LOG10.o)
 .text.__divdc3
                0x00000000       0x40 c:/program files/microchip/xc32/v4.00/bin/bin/../../lib/gcc/pic32c/8.3.1/../../../../pic32c/lib/thumb/v6-m/nofp\libm-emfloat.a(lib_a-_LOG10.o)
 .text.__SEGGER_RTL_float32_isnan
                0x00000000       0x10 c:/program files/microchip/xc32/v4.00/bin/bin/../../lib/gcc/pic32c/8.3.1/../../../../pic32c/lib/thumb/v6-m/nofp\libm-emfloat.a(lib_a-_LOG10.o)
 .text.__SEGGER_RTL_float32_isinf
                0x00000000       0x10 c:/program files/microchip/xc32/v4.00/bin/bin/../../lib/gcc/pic32c/8.3.1/../../../../pic32c/lib/thumb/v6-m/nofp\libm-emfloat.a(lib_a-_LOG10.o)
 .text.__SEGGER_RTL_float32_isfinite
                0x00000000       0x10 c:/program files/microchip/xc32/v4.00/bin/bin/../../lib/gcc/pic32c/8.3.1/../../../../pic32c/lib/thumb/v6-m/nofp\libm-emfloat.a(lib_a-_LOG10.o)
 .text.__SEGGER_RTL_float32_isnormal
                0x00000000       0x18 c:/program files/microchip/xc32/v4.00/bin/bin/../../lib/gcc/pic32c/8.3.1/../../../../pic32c/lib/thumb/v6-m/nofp\libm-emfloat.a(lib_a-_LOG10.o)
 .text.__SEGGER_RTL_float32_signbit
                0x00000000        0x4 c:/program files/microchip/xc32/v4.00/bin/bin/../../lib/gcc/pic32c/8.3.1/../../../../pic32c/lib/thumb/v6-m/nofp\libm-emfloat.a(lib_a-_LOG10.o)
 .text.__SEGGER_RTL_float32_classify
                0x00000000       0x2c c:/program files/microchip/xc32/v4.00/bin/bin/../../lib/gcc/pic32c/8.3.1/../../../../pic32c/lib/thumb/v6-m/nofp\libm-emfloat.a(lib_a-_LOG10.o)
 .text.__SEGGER_RTL_float64_isnan
                0x00000000       0x10 c:/program files/microchip/xc32/v4.00/bin/bin/../../lib/gcc/pic32c/8.3.1/../../../../pic32c/lib/thumb/v6-m/nofp\libm-emfloat.a(lib_a-_LOG10.o)
 .text.__SEGGER_RTL_float64_isinf
                0x00000000       0x10 c:/program files/microchip/xc32/v4.00/bin/bin/../../lib/gcc/pic32c/8.3.1/../../../../pic32c/lib/thumb/v6-m/nofp\libm-emfloat.a(lib_a-_LOG10.o)
 .text.__SEGGER_RTL_float64_isfinite
                0x00000000       0x10 c:/program files/microchip/xc32/v4.00/bin/bin/../../lib/gcc/pic32c/8.3.1/../../../../pic32c/lib/thumb/v6-m/nofp\libm-emfloat.a(lib_a-_LOG10.o)
 .text.__SEGGER_RTL_float64_isnormal
                0x00000000       0x24 c:/program files/microchip/xc32/v4.00/bin/bin/../../lib/gcc/pic32c/8.3.1/../../../../pic32c/lib/thumb/v6-m/nofp\libm-emfloat.a(lib_a-_LOG10.o)
 .text.__SEGGER_RTL_float64_signbit
                0x00000000        0x4 c:/program files/microchip/xc32/v4.00/bin/bin/../../lib/gcc/pic32c/8.3.1/../../../../pic32c/lib/thumb/v6-m/nofp\libm-emfloat.a(lib_a-_LOG10.o)
 .text.__SEGGER_RTL_float64_classify
                0x00000000       0x44 c:/program files/microchip/xc32/v4.00/bin/bin/../../lib/gcc/pic32c/8.3.1/../../../../pic32c/lib/thumb/v6-m/nofp\libm-emfloat.a(lib_a-_LOG10.o)
 .text.log10    0x00000000       0x18 c:/program files/microchip/xc32/v4.00/bin/bin/../../lib/gcc/pic32c/8.3.1/../../../../pic32c/lib/thumb/v6-m/nofp\libm-emfloat.a(lib_a-_LOG10.o)
 .text.log10l   0x00000000        0x8 c:/program files/microchip/xc32/v4.00/bin/bin/../../lib/gcc/pic32c/8.3.1/../../../../pic32c/lib/thumb/v6-m/nofp\libm-emfloat.a(lib_a-_LOG10.o)
 .xc_stack_usage.hdr
                0x00000000        0xe c:/program files/microchip/xc32/v4.00/bin/bin/../../lib/gcc/pic32c/8.3.1/../../../../pic32c/lib/thumb/v6-m/nofp\libm-emfloat.a(lib_a-_LOG10.o)
 .comment       0x00000000       0x54 c:/program files/microchip/xc32/v4.00/bin/bin/../../lib/gcc/pic32c/8.3.1/../../../../pic32c/lib/thumb/v6-m/nofp\libm-emfloat.a(lib_a-_LOG10.o)
 .ARM.attributes
                0x00000000       0x2c c:/program files/microchip/xc32/v4.00/bin/bin/../../lib/gcc/pic32c/8.3.1/../../../../pic32c/lib/thumb/v6-m/nofp\libm-emfloat.a(lib_a-_LOG10.o)
 .text          0x00000000        0x0 c:/program files/microchip/xc32/v4.00/bin/bin/../../lib/gcc/pic32c/8.3.1/../../../../pic32c/lib/thumb/v6-m/nofp\libm-emfloat.a(lib_a-_ILOGB.o)
 .data          0x00000000        0x0 c:/program files/microchip/xc32/v4.00/bin/bin/../../lib/gcc/pic32c/8.3.1/../../../../pic32c/lib/thumb/v6-m/nofp\libm-emfloat.a(lib_a-_ILOGB.o)
 .bss           0x00000000        0x0 c:/program files/microchip/xc32/v4.00/bin/bin/../../lib/gcc/pic32c/8.3.1/../../../../pic32c/lib/thumb/v6-m/nofp\libm-emfloat.a(lib_a-_ILOGB.o)
 .xc_stack_usage
                0x00000000      0x298 c:/program files/microchip/xc32/v4.00/bin/bin/../../lib/gcc/pic32c/8.3.1/../../../../pic32c/lib/thumb/v6-m/nofp\libm-emfloat.a(lib_a-_ILOGB.o)
 .text.__SEGGER_RTL_float64_cmplx
                0x00000000       0x14 c:/program files/microchip/xc32/v4.00/bin/bin/../../lib/gcc/pic32c/8.3.1/../../../../pic32c/lib/thumb/v6-m/nofp\libm-emfloat.a(lib_a-_ILOGB.o)
 .text.__mulsc3
                0x00000000      0x24c c:/program files/microchip/xc32/v4.00/bin/bin/../../lib/gcc/pic32c/8.3.1/../../../../pic32c/lib/thumb/v6-m/nofp\libm-emfloat.a(lib_a-_ILOGB.o)
 .text.__SEGGER_RTL_float32_isnan
                0x00000000       0x10 c:/program files/microchip/xc32/v4.00/bin/bin/../../lib/gcc/pic32c/8.3.1/../../../../pic32c/lib/thumb/v6-m/nofp\libm-emfloat.a(lib_a-_ILOGB.o)
 .text.__SEGGER_RTL_float32_isinf
                0x00000000       0x10 c:/program files/microchip/xc32/v4.00/bin/bin/../../lib/gcc/pic32c/8.3.1/../../../../pic32c/lib/thumb/v6-m/nofp\libm-emfloat.a(lib_a-_ILOGB.o)
 .text.__SEGGER_RTL_float32_isfinite
                0x00000000       0x10 c:/program files/microchip/xc32/v4.00/bin/bin/../../lib/gcc/pic32c/8.3.1/../../../../pic32c/lib/thumb/v6-m/nofp\libm-emfloat.a(lib_a-_ILOGB.o)
 .text.__SEGGER_RTL_float32_isnormal
                0x00000000       0x18 c:/program files/microchip/xc32/v4.00/bin/bin/../../lib/gcc/pic32c/8.3.1/../../../../pic32c/lib/thumb/v6-m/nofp\libm-emfloat.a(lib_a-_ILOGB.o)
 .text.__SEGGER_RTL_float32_signbit
                0x00000000        0x4 c:/program files/microchip/xc32/v4.00/bin/bin/../../lib/gcc/pic32c/8.3.1/../../../../pic32c/lib/thumb/v6-m/nofp\libm-emfloat.a(lib_a-_ILOGB.o)
 .text.__SEGGER_RTL_float32_classify
                0x00000000       0x2c c:/program files/microchip/xc32/v4.00/bin/bin/../../lib/gcc/pic32c/8.3.1/../../../../pic32c/lib/thumb/v6-m/nofp\libm-emfloat.a(lib_a-_ILOGB.o)
 .text.__SEGGER_RTL_float64_isnan
                0x00000000       0x10 c:/program files/microchip/xc32/v4.00/bin/bin/../../lib/gcc/pic32c/8.3.1/../../../../pic32c/lib/thumb/v6-m/nofp\libm-emfloat.a(lib_a-_ILOGB.o)
 .text.__SEGGER_RTL_float64_isinf
                0x00000000       0x10 c:/program files/microchip/xc32/v4.00/bin/bin/../../lib/gcc/pic32c/8.3.1/../../../../pic32c/lib/thumb/v6-m/nofp\libm-emfloat.a(lib_a-_ILOGB.o)
 .text.__SEGGER_RTL_float64_isfinite
                0x00000000       0x10 c:/program files/microchip/xc32/v4.00/bin/bin/../../lib/gcc/pic32c/8.3.1/../../../../pic32c/lib/thumb/v6-m/nofp\libm-emfloat.a(lib_a-_ILOGB.o)
 .text.__SEGGER_RTL_float64_isnormal
                0x00000000       0x24 c:/program files/microchip/xc32/v4.00/bin/bin/../../lib/gcc/pic32c/8.3.1/../../../../pic32c/lib/thumb/v6-m/nofp\libm-emfloat.a(lib_a-_ILOGB.o)
 .text.__SEGGER_RTL_float64_signbit
                0x00000000        0x4 c:/program files/microchip/xc32/v4.00/bin/bin/../../lib/gcc/pic32c/8.3.1/../../../../pic32c/lib/thumb/v6-m/nofp\libm-emfloat.a(lib_a-_ILOGB.o)
 .text.__SEGGER_RTL_float64_classify
                0x00000000       0x44 c:/program files/microchip/xc32/v4.00/bin/bin/../../lib/gcc/pic32c/8.3.1/../../../../pic32c/lib/thumb/v6-m/nofp\libm-emfloat.a(lib_a-_ILOGB.o)
 .text.ilogb    0x00000000       0x3c c:/program files/microchip/xc32/v4.00/bin/bin/../../lib/gcc/pic32c/8.3.1/../../../../pic32c/lib/thumb/v6-m/nofp\libm-emfloat.a(lib_a-_ILOGB.o)
 .text.__SEGGER_RTL_float64_cdiv
                0x00000000      0x2bc c:/program files/microchip/xc32/v4.00/bin/bin/../../lib/gcc/pic32c/8.3.1/../../../../pic32c/lib/thumb/v6-m/nofp\libm-emfloat.a(lib_a-_ILOGB.o)
 .text.__divdc3
                0x00000000       0x40 c:/program files/microchip/xc32/v4.00/bin/bin/../../lib/gcc/pic32c/8.3.1/../../../../pic32c/lib/thumb/v6-m/nofp\libm-emfloat.a(lib_a-_ILOGB.o)
 .text.ilogbl   0x00000000        0x8 c:/program files/microchip/xc32/v4.00/bin/bin/../../lib/gcc/pic32c/8.3.1/../../../../pic32c/lib/thumb/v6-m/nofp\libm-emfloat.a(lib_a-_ILOGB.o)
 .xc_stack_usage.hdr
                0x00000000        0xe c:/program files/microchip/xc32/v4.00/bin/bin/../../lib/gcc/pic32c/8.3.1/../../../../pic32c/lib/thumb/v6-m/nofp\libm-emfloat.a(lib_a-_ILOGB.o)
 .comment       0x00000000       0x54 c:/program files/microchip/xc32/v4.00/bin/bin/../../lib/gcc/pic32c/8.3.1/../../../../pic32c/lib/thumb/v6-m/nofp\libm-emfloat.a(lib_a-_ILOGB.o)
 .ARM.attributes
                0x00000000       0x2c c:/program files/microchip/xc32/v4.00/bin/bin/../../lib/gcc/pic32c/8.3.1/../../../../pic32c/lib/thumb/v6-m/nofp\libm-emfloat.a(lib_a-_ILOGB.o)
 .text          0x00000000        0x0 c:/program files/microchip/xc32/v4.00/bin/bin/../../lib/gcc/pic32c/8.3.1/../../../../pic32c/lib/thumb/v6-m/nofp\libm-emfloat.a(lib_a-_LDEXP.o)
 .data          0x00000000        0x0 c:/program files/microchip/xc32/v4.00/bin/bin/../../lib/gcc/pic32c/8.3.1/../../../../pic32c/lib/thumb/v6-m/nofp\libm-emfloat.a(lib_a-_LDEXP.o)
 .bss           0x00000000        0x0 c:/program files/microchip/xc32/v4.00/bin/bin/../../lib/gcc/pic32c/8.3.1/../../../../pic32c/lib/thumb/v6-m/nofp\libm-emfloat.a(lib_a-_LDEXP.o)
 .xc_stack_usage
                0x00000000      0x298 c:/program files/microchip/xc32/v4.00/bin/bin/../../lib/gcc/pic32c/8.3.1/../../../../pic32c/lib/thumb/v6-m/nofp\libm-emfloat.a(lib_a-_LDEXP.o)
 .text.__SEGGER_RTL_float64_cmplx
                0x00000000       0x14 c:/program files/microchip/xc32/v4.00/bin/bin/../../lib/gcc/pic32c/8.3.1/../../../../pic32c/lib/thumb/v6-m/nofp\libm-emfloat.a(lib_a-_LDEXP.o)
 .text.__mulsc3
                0x00000000      0x24c c:/program files/microchip/xc32/v4.00/bin/bin/../../lib/gcc/pic32c/8.3.1/../../../../pic32c/lib/thumb/v6-m/nofp\libm-emfloat.a(lib_a-_LDEXP.o)
 .text.__SEGGER_RTL_float32_isnan
                0x00000000       0x10 c:/program files/microchip/xc32/v4.00/bin/bin/../../lib/gcc/pic32c/8.3.1/../../../../pic32c/lib/thumb/v6-m/nofp\libm-emfloat.a(lib_a-_LDEXP.o)
 .text.__SEGGER_RTL_float32_isinf
                0x00000000       0x10 c:/program files/microchip/xc32/v4.00/bin/bin/../../lib/gcc/pic32c/8.3.1/../../../../pic32c/lib/thumb/v6-m/nofp\libm-emfloat.a(lib_a-_LDEXP.o)
 .text.__SEGGER_RTL_float32_isfinite
                0x00000000       0x10 c:/program files/microchip/xc32/v4.00/bin/bin/../../lib/gcc/pic32c/8.3.1/../../../../pic32c/lib/thumb/v6-m/nofp\libm-emfloat.a(lib_a-_LDEXP.o)
 .text.__SEGGER_RTL_float32_isnormal
                0x00000000       0x18 c:/program files/microchip/xc32/v4.00/bin/bin/../../lib/gcc/pic32c/8.3.1/../../../../pic32c/lib/thumb/v6-m/nofp\libm-emfloat.a(lib_a-_LDEXP.o)
 .text.__SEGGER_RTL_float32_signbit
                0x00000000        0x4 c:/program files/microchip/xc32/v4.00/bin/bin/../../lib/gcc/pic32c/8.3.1/../../../../pic32c/lib/thumb/v6-m/nofp\libm-emfloat.a(lib_a-_LDEXP.o)
 .text.__SEGGER_RTL_float32_classify
                0x00000000       0x2c c:/program files/microchip/xc32/v4.00/bin/bin/../../lib/gcc/pic32c/8.3.1/../../../../pic32c/lib/thumb/v6-m/nofp\libm-emfloat.a(lib_a-_LDEXP.o)
 .text.__SEGGER_RTL_float64_isnan
                0x00000000       0x10 c:/program files/microchip/xc32/v4.00/bin/bin/../../lib/gcc/pic32c/8.3.1/../../../../pic32c/lib/thumb/v6-m/nofp\libm-emfloat.a(lib_a-_LDEXP.o)
 .text.__SEGGER_RTL_float64_isinf
                0x00000000       0x10 c:/program files/microchip/xc32/v4.00/bin/bin/../../lib/gcc/pic32c/8.3.1/../../../../pic32c/lib/thumb/v6-m/nofp\libm-emfloat.a(lib_a-_LDEXP.o)
 .text.__SEGGER_RTL_float64_isfinite
                0x00000000       0x10 c:/program files/microchip/xc32/v4.00/bin/bin/../../lib/gcc/pic32c/8.3.1/../../../../pic32c/lib/thumb/v6-m/nofp\libm-emfloat.a(lib_a-_LDEXP.o)
 .text.__SEGGER_RTL_float64_isnormal
                0x00000000       0x24 c:/program files/microchip/xc32/v4.00/bin/bin/../../lib/gcc/pic32c/8.3.1/../../../../pic32c/lib/thumb/v6-m/nofp\libm-emfloat.a(lib_a-_LDEXP.o)
 .text.__SEGGER_RTL_float64_signbit
                0x00000000        0x4 c:/program files/microchip/xc32/v4.00/bin/bin/../../lib/gcc/pic32c/8.3.1/../../../../pic32c/lib/thumb/v6-m/nofp\libm-emfloat.a(lib_a-_LDEXP.o)
 .text.__SEGGER_RTL_float64_classify
                0x00000000       0x44 c:/program files/microchip/xc32/v4.00/bin/bin/../../lib/gcc/pic32c/8.3.1/../../../../pic32c/lib/thumb/v6-m/nofp\libm-emfloat.a(lib_a-_LDEXP.o)
 .text.ldexp    0x00000000       0x54 c:/program files/microchip/xc32/v4.00/bin/bin/../../lib/gcc/pic32c/8.3.1/../../../../pic32c/lib/thumb/v6-m/nofp\libm-emfloat.a(lib_a-_LDEXP.o)
 .text.__SEGGER_RTL_float64_cdiv
                0x00000000      0x2bc c:/program files/microchip/xc32/v4.00/bin/bin/../../lib/gcc/pic32c/8.3.1/../../../../pic32c/lib/thumb/v6-m/nofp\libm-emfloat.a(lib_a-_LDEXP.o)
 .text.__divdc3
                0x00000000       0x40 c:/program files/microchip/xc32/v4.00/bin/bin/../../lib/gcc/pic32c/8.3.1/../../../../pic32c/lib/thumb/v6-m/nofp\libm-emfloat.a(lib_a-_LDEXP.o)
 .text.ldexpl   0x00000000        0x8 c:/program files/microchip/xc32/v4.00/bin/bin/../../lib/gcc/pic32c/8.3.1/../../../../pic32c/lib/thumb/v6-m/nofp\libm-emfloat.a(lib_a-_LDEXP.o)
 .xc_stack_usage.hdr
                0x00000000        0xe c:/program files/microchip/xc32/v4.00/bin/bin/../../lib/gcc/pic32c/8.3.1/../../../../pic32c/lib/thumb/v6-m/nofp\libm-emfloat.a(lib_a-_LDEXP.o)
 .comment       0x00000000       0x54 c:/program files/microchip/xc32/v4.00/bin/bin/../../lib/gcc/pic32c/8.3.1/../../../../pic32c/lib/thumb/v6-m/nofp\libm-emfloat.a(lib_a-_LDEXP.o)
 .ARM.attributes
                0x00000000       0x2c c:/program files/microchip/xc32/v4.00/bin/bin/../../lib/gcc/pic32c/8.3.1/../../../../pic32c/lib/thumb/v6-m/nofp\libm-emfloat.a(lib_a-_LDEXP.o)
 .text          0x00000000        0x0 c:/program files/microchip/xc32/v4.00/bin/bin/../../lib/gcc/pic32c/8.3.1/../../../../pic32c/lib/thumb/v6-m/nofp\libm-emfloat.a(lib_a-_POW.o)
 .data          0x00000000        0x0 c:/program files/microchip/xc32/v4.00/bin/bin/../../lib/gcc/pic32c/8.3.1/../../../../pic32c/lib/thumb/v6-m/nofp\libm-emfloat.a(lib_a-_POW.o)
 .bss           0x00000000        0x0 c:/program files/microchip/xc32/v4.00/bin/bin/../../lib/gcc/pic32c/8.3.1/../../../../pic32c/lib/thumb/v6-m/nofp\libm-emfloat.a(lib_a-_POW.o)
 .xc_stack_usage
                0x00000000      0x294 c:/program files/microchip/xc32/v4.00/bin/bin/../../lib/gcc/pic32c/8.3.1/../../../../pic32c/lib/thumb/v6-m/nofp\libm-emfloat.a(lib_a-_POW.o)
 .text.__SEGGER_RTL_float64_cdiv
                0x00000000      0x2bc c:/program files/microchip/xc32/v4.00/bin/bin/../../lib/gcc/pic32c/8.3.1/../../../../pic32c/lib/thumb/v6-m/nofp\libm-emfloat.a(lib_a-_POW.o)
 .text.__SEGGER_RTL_float64_cmplx
                0x00000000       0x14 c:/program files/microchip/xc32/v4.00/bin/bin/../../lib/gcc/pic32c/8.3.1/../../../../pic32c/lib/thumb/v6-m/nofp\libm-emfloat.a(lib_a-_POW.o)
 .text.__mulsc3
                0x00000000      0x24c c:/program files/microchip/xc32/v4.00/bin/bin/../../lib/gcc/pic32c/8.3.1/../../../../pic32c/lib/thumb/v6-m/nofp\libm-emfloat.a(lib_a-_POW.o)
 .text.__divdc3
                0x00000000       0x40 c:/program files/microchip/xc32/v4.00/bin/bin/../../lib/gcc/pic32c/8.3.1/../../../../pic32c/lib/thumb/v6-m/nofp\libm-emfloat.a(lib_a-_POW.o)
 .text.__SEGGER_RTL_float32_isnan
                0x00000000       0x10 c:/program files/microchip/xc32/v4.00/bin/bin/../../lib/gcc/pic32c/8.3.1/../../../../pic32c/lib/thumb/v6-m/nofp\libm-emfloat.a(lib_a-_POW.o)
 .text.__SEGGER_RTL_float32_isinf
                0x00000000       0x10 c:/program files/microchip/xc32/v4.00/bin/bin/../../lib/gcc/pic32c/8.3.1/../../../../pic32c/lib/thumb/v6-m/nofp\libm-emfloat.a(lib_a-_POW.o)
 .text.__SEGGER_RTL_float32_isfinite
                0x00000000       0x10 c:/program files/microchip/xc32/v4.00/bin/bin/../../lib/gcc/pic32c/8.3.1/../../../../pic32c/lib/thumb/v6-m/nofp\libm-emfloat.a(lib_a-_POW.o)
 .text.__SEGGER_RTL_float32_isnormal
                0x00000000       0x18 c:/program files/microchip/xc32/v4.00/bin/bin/../../lib/gcc/pic32c/8.3.1/../../../../pic32c/lib/thumb/v6-m/nofp\libm-emfloat.a(lib_a-_POW.o)
 .text.__SEGGER_RTL_float32_signbit
                0x00000000        0x4 c:/program files/microchip/xc32/v4.00/bin/bin/../../lib/gcc/pic32c/8.3.1/../../../../pic32c/lib/thumb/v6-m/nofp\libm-emfloat.a(lib_a-_POW.o)
 .text.__SEGGER_RTL_float32_classify
                0x00000000       0x2c c:/program files/microchip/xc32/v4.00/bin/bin/../../lib/gcc/pic32c/8.3.1/../../../../pic32c/lib/thumb/v6-m/nofp\libm-emfloat.a(lib_a-_POW.o)
 .text.__SEGGER_RTL_float64_isnan
                0x00000000       0x10 c:/program files/microchip/xc32/v4.00/bin/bin/../../lib/gcc/pic32c/8.3.1/../../../../pic32c/lib/thumb/v6-m/nofp\libm-emfloat.a(lib_a-_POW.o)
 .text.__SEGGER_RTL_float64_isinf
                0x00000000       0x10 c:/program files/microchip/xc32/v4.00/bin/bin/../../lib/gcc/pic32c/8.3.1/../../../../pic32c/lib/thumb/v6-m/nofp\libm-emfloat.a(lib_a-_POW.o)
 .text.__SEGGER_RTL_float64_isfinite
                0x00000000       0x10 c:/program files/microchip/xc32/v4.00/bin/bin/../../lib/gcc/pic32c/8.3.1/../../../../pic32c/lib/thumb/v6-m/nofp\libm-emfloat.a(lib_a-_POW.o)
 .text.__SEGGER_RTL_float64_isnormal
                0x00000000       0x24 c:/program files/microchip/xc32/v4.00/bin/bin/../../lib/gcc/pic32c/8.3.1/../../../../pic32c/lib/thumb/v6-m/nofp\libm-emfloat.a(lib_a-_POW.o)
 .text.__SEGGER_RTL_float64_signbit
                0x00000000        0x4 c:/program files/microchip/xc32/v4.00/bin/bin/../../lib/gcc/pic32c/8.3.1/../../../../pic32c/lib/thumb/v6-m/nofp\libm-emfloat.a(lib_a-_POW.o)
 .text.__SEGGER_RTL_float64_classify
                0x00000000       0x44 c:/program files/microchip/xc32/v4.00/bin/bin/../../lib/gcc/pic32c/8.3.1/../../../../pic32c/lib/thumb/v6-m/nofp\libm-emfloat.a(lib_a-_POW.o)
 .text.pow      0x00000000      0x488 c:/program files/microchip/xc32/v4.00/bin/bin/../../lib/gcc/pic32c/8.3.1/../../../../pic32c/lib/thumb/v6-m/nofp\libm-emfloat.a(lib_a-_POW.o)
 .text.powl     0x00000000        0x8 c:/program files/microchip/xc32/v4.00/bin/bin/../../lib/gcc/pic32c/8.3.1/../../../../pic32c/lib/thumb/v6-m/nofp\libm-emfloat.a(lib_a-_POW.o)
 .xc_stack_usage.hdr
                0x00000000        0xe c:/program files/microchip/xc32/v4.00/bin/bin/../../lib/gcc/pic32c/8.3.1/../../../../pic32c/lib/thumb/v6-m/nofp\libm-emfloat.a(lib_a-_POW.o)
 .comment       0x00000000       0x54 c:/program files/microchip/xc32/v4.00/bin/bin/../../lib/gcc/pic32c/8.3.1/../../../../pic32c/lib/thumb/v6-m/nofp\libm-emfloat.a(lib_a-_POW.o)
 .ARM.attributes
                0x00000000       0x2c c:/program files/microchip/xc32/v4.00/bin/bin/../../lib/gcc/pic32c/8.3.1/../../../../pic32c/lib/thumb/v6-m/nofp\libm-emfloat.a(lib_a-_POW.o)
 .text          0x00000000        0x0 c:/program files/microchip/xc32/v4.00/bin/bin/../../lib/gcc/pic32c/8.3.1/../../../../pic32c/lib/thumb/v6-m/nofp\libm-emfloat.a(floatasmops_arm.o)
 .data          0x00000000        0x0 c:/program files/microchip/xc32/v4.00/bin/bin/../../lib/gcc/pic32c/8.3.1/../../../../pic32c/lib/thumb/v6-m/nofp\libm-emfloat.a(floatasmops_arm.o)
 .bss           0x00000000        0x0 c:/program files/microchip/xc32/v4.00/bin/bin/../../lib/gcc/pic32c/8.3.1/../../../../pic32c/lib/thumb/v6-m/nofp\libm-emfloat.a(floatasmops_arm.o)
 .rodata.__aeabi_ddiv_reciprocal_table
                0x00000000      0x180 c:/program files/microchip/xc32/v4.00/bin/bin/../../lib/gcc/pic32c/8.3.1/../../../../pic32c/lib/thumb/v6-m/nofp\libm-emfloat.a(floatasmops_arm.o)
 .text.__aeabi_dsub
                0x00000000       0x10 c:/program files/microchip/xc32/v4.00/bin/bin/../../lib/gcc/pic32c/8.3.1/../../../../pic32c/lib/thumb/v6-m/nofp\libm-emfloat.a(floatasmops_arm.o)
 .text.__aeabi_frsub
                0x00000000       0x10 c:/program files/microchip/xc32/v4.00/bin/bin/../../lib/gcc/pic32c/8.3.1/../../../../pic32c/lib/thumb/v6-m/nofp\libm-emfloat.a(floatasmops_arm.o)
 .text.__aeabi_drsub
                0x00000000       0x10 c:/program files/microchip/xc32/v4.00/bin/bin/../../lib/gcc/pic32c/8.3.1/../../../../pic32c/lib/thumb/v6-m/nofp\libm-emfloat.a(floatasmops_arm.o)
 .text.__aeabi_fcmple
                0x00000000       0x34 c:/program files/microchip/xc32/v4.00/bin/bin/../../lib/gcc/pic32c/8.3.1/../../../../pic32c/lib/thumb/v6-m/nofp\libm-emfloat.a(floatasmops_arm.o)
 .text.__aeabi_dcmple
                0x00000000       0x44 c:/program files/microchip/xc32/v4.00/bin/bin/../../lib/gcc/pic32c/8.3.1/../../../../pic32c/lib/thumb/v6-m/nofp\libm-emfloat.a(floatasmops_arm.o)
 .text.__aeabi_fcmpeq
                0x00000000       0x20 c:/program files/microchip/xc32/v4.00/bin/bin/../../lib/gcc/pic32c/8.3.1/../../../../pic32c/lib/thumb/v6-m/nofp\libm-emfloat.a(floatasmops_arm.o)
 .text.__aeabi_fcmpge
                0x00000000       0x34 c:/program files/microchip/xc32/v4.00/bin/bin/../../lib/gcc/pic32c/8.3.1/../../../../pic32c/lib/thumb/v6-m/nofp\libm-emfloat.a(floatasmops_arm.o)
 .text.__aeabi_dcmpge
                0x00000000       0x44 c:/program files/microchip/xc32/v4.00/bin/bin/../../lib/gcc/pic32c/8.3.1/../../../../pic32c/lib/thumb/v6-m/nofp\libm-emfloat.a(floatasmops_arm.o)
 .text.__aeabi_fcmpgt
                0x00000000       0x30 c:/program files/microchip/xc32/v4.00/bin/bin/../../lib/gcc/pic32c/8.3.1/../../../../pic32c/lib/thumb/v6-m/nofp\libm-emfloat.a(floatasmops_arm.o)
 .text.__aeabi_fcmplt
                0x00000000       0x30 c:/program files/microchip/xc32/v4.00/bin/bin/../../lib/gcc/pic32c/8.3.1/../../../../pic32c/lib/thumb/v6-m/nofp\libm-emfloat.a(floatasmops_arm.o)
 .text.__aeabi_fcmpun
                0x00000000       0x20 c:/program files/microchip/xc32/v4.00/bin/bin/../../lib/gcc/pic32c/8.3.1/../../../../pic32c/lib/thumb/v6-m/nofp\libm-emfloat.a(floatasmops_arm.o)
 .text.__aeabi_dcmpun
                0x00000000       0x20 c:/program files/microchip/xc32/v4.00/bin/bin/../../lib/gcc/pic32c/8.3.1/../../../../pic32c/lib/thumb/v6-m/nofp\libm-emfloat.a(floatasmops_arm.o)
 .text.__aeabi_cfcmpeq
                0x00000000        0x0 c:/program files/microchip/xc32/v4.00/bin/bin/../../lib/gcc/pic32c/8.3.1/../../../../pic32c/lib/thumb/v6-m/nofp\libm-emfloat.a(floatasmops_arm.o)
 .text.__aeabi_cdcmpeq
                0x00000000       0x10 c:/program files/microchip/xc32/v4.00/bin/bin/../../lib/gcc/pic32c/8.3.1/../../../../pic32c/lib/thumb/v6-m/nofp\libm-emfloat.a(floatasmops_arm.o)
 .text.__aeabi_cfcmple
                0x00000000       0x10 c:/program files/microchip/xc32/v4.00/bin/bin/../../lib/gcc/pic32c/8.3.1/../../../../pic32c/lib/thumb/v6-m/nofp\libm-emfloat.a(floatasmops_arm.o)
 .text.__aeabi_cdcmple
                0x00000000       0x10 c:/program files/microchip/xc32/v4.00/bin/bin/../../lib/gcc/pic32c/8.3.1/../../../../pic32c/lib/thumb/v6-m/nofp\libm-emfloat.a(floatasmops_arm.o)
 .text.__aeabi_cfrcmple
                0x00000000       0x18 c:/program files/microchip/xc32/v4.00/bin/bin/../../lib/gcc/pic32c/8.3.1/../../../../pic32c/lib/thumb/v6-m/nofp\libm-emfloat.a(floatasmops_arm.o)
 .text.__aeabi_cdrcmple
                0x00000000       0x1c c:/program files/microchip/xc32/v4.00/bin/bin/../../lib/gcc/pic32c/8.3.1/../../../../pic32c/lib/thumb/v6-m/nofp\libm-emfloat.a(floatasmops_arm.o)
 .text.__aeabi_cfcmp_impl
                0x00000000       0x36 c:/program files/microchip/xc32/v4.00/bin/bin/../../lib/gcc/pic32c/8.3.1/../../../../pic32c/lib/thumb/v6-m/nofp\libm-emfloat.a(floatasmops_arm.o)
 .text.__aeabi_cdcmp_impl
                0x00000000       0x6a c:/program files/microchip/xc32/v4.00/bin/bin/../../lib/gcc/pic32c/8.3.1/../../../../pic32c/lib/thumb/v6-m/nofp\libm-emfloat.a(floatasmops_arm.o)
 .text.__aeabi_f2iz
                0x00000000       0x40 c:/program files/microchip/xc32/v4.00/bin/bin/../../lib/gcc/pic32c/8.3.1/../../../../pic32c/lib/thumb/v6-m/nofp\libm-emfloat.a(floatasmops_arm.o)
 .text.__aeabi_f2lz
                0x00000000       0x88 c:/program files/microchip/xc32/v4.00/bin/bin/../../lib/gcc/pic32c/8.3.1/../../../../pic32c/lib/thumb/v6-m/nofp\libm-emfloat.a(floatasmops_arm.o)
 .text.__aeabi_d2lz
                0x00000000       0x74 c:/program files/microchip/xc32/v4.00/bin/bin/../../lib/gcc/pic32c/8.3.1/../../../../pic32c/lib/thumb/v6-m/nofp\libm-emfloat.a(floatasmops_arm.o)
 .text.__aeabi_f2uiz
                0x00000000       0x24 c:/program files/microchip/xc32/v4.00/bin/bin/../../lib/gcc/pic32c/8.3.1/../../../../pic32c/lib/thumb/v6-m/nofp\libm-emfloat.a(floatasmops_arm.o)
 .text.__aeabi_f2ulz
                0x00000000       0x40 c:/program files/microchip/xc32/v4.00/bin/bin/../../lib/gcc/pic32c/8.3.1/../../../../pic32c/lib/thumb/v6-m/nofp\libm-emfloat.a(floatasmops_arm.o)
 .text.__aeabi_d2ulz
                0x00000000       0x48 c:/program files/microchip/xc32/v4.00/bin/bin/../../lib/gcc/pic32c/8.3.1/../../../../pic32c/lib/thumb/v6-m/nofp\libm-emfloat.a(floatasmops_arm.o)
 .text.__aeabi_i2d
                0x00000000       0x1c c:/program files/microchip/xc32/v4.00/bin/bin/../../lib/gcc/pic32c/8.3.1/../../../../pic32c/lib/thumb/v6-m/nofp\libm-emfloat.a(floatasmops_arm.o)
 .text.__aeabi_l2d
                0x00000000       0x5c c:/program files/microchip/xc32/v4.00/bin/bin/../../lib/gcc/pic32c/8.3.1/../../../../pic32c/lib/thumb/v6-m/nofp\libm-emfloat.a(floatasmops_arm.o)
 .text.__aeabi_ui2d
                0x00000000       0x1c c:/program files/microchip/xc32/v4.00/bin/bin/../../lib/gcc/pic32c/8.3.1/../../../../pic32c/lib/thumb/v6-m/nofp\libm-emfloat.a(floatasmops_arm.o)
 .text.__aeabi_ul2d
                0x00000000       0x18 c:/program files/microchip/xc32/v4.00/bin/bin/../../lib/gcc/pic32c/8.3.1/../../../../pic32c/lib/thumb/v6-m/nofp\libm-emfloat.a(floatasmops_arm.o)
 .xc_stack_usage.hdr
                0x00000000        0xe c:/program files/microchip/xc32/v4.00/bin/bin/../../lib/gcc/pic32c/8.3.1/../../../../pic32c/lib/thumb/v6-m/nofp\libm-emfloat.a(floatasmops_arm.o)
 .xc_stack_usage
                0x00000000      0x5ce c:/program files/microchip/xc32/v4.00/bin/bin/../../lib/gcc/pic32c/8.3.1/../../../../pic32c/lib/thumb/v6-m/nofp\libm-emfloat.a(floatasmops_arm.o)
 .text          0x00000000        0x0 c:/program files/microchip/xc32/v4.00/bin/bin/../../lib/gcc/pic32c/8.3.1/../../../../pic32c/lib/thumb/v6-m/nofp\libm-emfloat.a(lib_a-_EXP.o)
 .data          0x00000000        0x0 c:/program files/microchip/xc32/v4.00/bin/bin/../../lib/gcc/pic32c/8.3.1/../../../../pic32c/lib/thumb/v6-m/nofp\libm-emfloat.a(lib_a-_EXP.o)
 .bss           0x00000000        0x0 c:/program files/microchip/xc32/v4.00/bin/bin/../../lib/gcc/pic32c/8.3.1/../../../../pic32c/lib/thumb/v6-m/nofp\libm-emfloat.a(lib_a-_EXP.o)
 .xc_stack_usage
                0x00000000      0x294 c:/program files/microchip/xc32/v4.00/bin/bin/../../lib/gcc/pic32c/8.3.1/../../../../pic32c/lib/thumb/v6-m/nofp\libm-emfloat.a(lib_a-_EXP.o)
 .text.__SEGGER_RTL_float64_cdiv
                0x00000000      0x2bc c:/program files/microchip/xc32/v4.00/bin/bin/../../lib/gcc/pic32c/8.3.1/../../../../pic32c/lib/thumb/v6-m/nofp\libm-emfloat.a(lib_a-_EXP.o)
 .text.__SEGGER_RTL_float64_cmplx
                0x00000000       0x14 c:/program files/microchip/xc32/v4.00/bin/bin/../../lib/gcc/pic32c/8.3.1/../../../../pic32c/lib/thumb/v6-m/nofp\libm-emfloat.a(lib_a-_EXP.o)
 .text.__mulsc3
                0x00000000      0x24c c:/program files/microchip/xc32/v4.00/bin/bin/../../lib/gcc/pic32c/8.3.1/../../../../pic32c/lib/thumb/v6-m/nofp\libm-emfloat.a(lib_a-_EXP.o)
 .text.__divdc3
                0x00000000       0x40 c:/program files/microchip/xc32/v4.00/bin/bin/../../lib/gcc/pic32c/8.3.1/../../../../pic32c/lib/thumb/v6-m/nofp\libm-emfloat.a(lib_a-_EXP.o)
 .text.__SEGGER_RTL_float32_isnan
                0x00000000       0x10 c:/program files/microchip/xc32/v4.00/bin/bin/../../lib/gcc/pic32c/8.3.1/../../../../pic32c/lib/thumb/v6-m/nofp\libm-emfloat.a(lib_a-_EXP.o)
 .text.__SEGGER_RTL_float32_isinf
                0x00000000       0x10 c:/program files/microchip/xc32/v4.00/bin/bin/../../lib/gcc/pic32c/8.3.1/../../../../pic32c/lib/thumb/v6-m/nofp\libm-emfloat.a(lib_a-_EXP.o)
 .text.__SEGGER_RTL_float32_isfinite
                0x00000000       0x10 c:/program files/microchip/xc32/v4.00/bin/bin/../../lib/gcc/pic32c/8.3.1/../../../../pic32c/lib/thumb/v6-m/nofp\libm-emfloat.a(lib_a-_EXP.o)
 .text.__SEGGER_RTL_float32_isnormal
                0x00000000       0x18 c:/program files/microchip/xc32/v4.00/bin/bin/../../lib/gcc/pic32c/8.3.1/../../../../pic32c/lib/thumb/v6-m/nofp\libm-emfloat.a(lib_a-_EXP.o)
 .text.__SEGGER_RTL_float32_signbit
                0x00000000        0x4 c:/program files/microchip/xc32/v4.00/bin/bin/../../lib/gcc/pic32c/8.3.1/../../../../pic32c/lib/thumb/v6-m/nofp\libm-emfloat.a(lib_a-_EXP.o)
 .text.__SEGGER_RTL_float32_classify
                0x00000000       0x2c c:/program files/microchip/xc32/v4.00/bin/bin/../../lib/gcc/pic32c/8.3.1/../../../../pic32c/lib/thumb/v6-m/nofp\libm-emfloat.a(lib_a-_EXP.o)
 .text.__SEGGER_RTL_float64_isnan
                0x00000000       0x10 c:/program files/microchip/xc32/v4.00/bin/bin/../../lib/gcc/pic32c/8.3.1/../../../../pic32c/lib/thumb/v6-m/nofp\libm-emfloat.a(lib_a-_EXP.o)
 .text.__SEGGER_RTL_float64_isinf
                0x00000000       0x10 c:/program files/microchip/xc32/v4.00/bin/bin/../../lib/gcc/pic32c/8.3.1/../../../../pic32c/lib/thumb/v6-m/nofp\libm-emfloat.a(lib_a-_EXP.o)
 .text.__SEGGER_RTL_float64_isfinite
                0x00000000       0x10 c:/program files/microchip/xc32/v4.00/bin/bin/../../lib/gcc/pic32c/8.3.1/../../../../pic32c/lib/thumb/v6-m/nofp\libm-emfloat.a(lib_a-_EXP.o)
 .text.__SEGGER_RTL_float64_isnormal
                0x00000000       0x24 c:/program files/microchip/xc32/v4.00/bin/bin/../../lib/gcc/pic32c/8.3.1/../../../../pic32c/lib/thumb/v6-m/nofp\libm-emfloat.a(lib_a-_EXP.o)
 .text.__SEGGER_RTL_float64_signbit
                0x00000000        0x4 c:/program files/microchip/xc32/v4.00/bin/bin/../../lib/gcc/pic32c/8.3.1/../../../../pic32c/lib/thumb/v6-m/nofp\libm-emfloat.a(lib_a-_EXP.o)
 .text.__SEGGER_RTL_float64_classify
                0x00000000       0x44 c:/program files/microchip/xc32/v4.00/bin/bin/../../lib/gcc/pic32c/8.3.1/../../../../pic32c/lib/thumb/v6-m/nofp\libm-emfloat.a(lib_a-_EXP.o)
 .text.exp      0x00000000      0x1e8 c:/program files/microchip/xc32/v4.00/bin/bin/../../lib/gcc/pic32c/8.3.1/../../../../pic32c/lib/thumb/v6-m/nofp\libm-emfloat.a(lib_a-_EXP.o)
 .text.expl     0x00000000        0x8 c:/program files/microchip/xc32/v4.00/bin/bin/../../lib/gcc/pic32c/8.3.1/../../../../pic32c/lib/thumb/v6-m/nofp\libm-emfloat.a(lib_a-_EXP.o)
 .xc_stack_usage.hdr
                0x00000000        0xe c:/program files/microchip/xc32/v4.00/bin/bin/../../lib/gcc/pic32c/8.3.1/../../../../pic32c/lib/thumb/v6-m/nofp\libm-emfloat.a(lib_a-_EXP.o)
 .comment       0x00000000       0x54 c:/program files/microchip/xc32/v4.00/bin/bin/../../lib/gcc/pic32c/8.3.1/../../../../pic32c/lib/thumb/v6-m/nofp\libm-emfloat.a(lib_a-_EXP.o)
 .ARM.attributes
                0x00000000       0x2c c:/program files/microchip/xc32/v4.00/bin/bin/../../lib/gcc/pic32c/8.3.1/../../../../pic32c/lib/thumb/v6-m/nofp\libm-emfloat.a(lib_a-_EXP.o)
 .text          0x00000000        0x0 c:/program files/microchip/xc32/v4.00/bin/bin/../../lib/gcc/pic32c/8.3.1/../../../../pic32c/lib/thumb/v6-m/nofp\libm-emfloat.a(lib_a-_LOG.o)
 .data          0x00000000        0x0 c:/program files/microchip/xc32/v4.00/bin/bin/../../lib/gcc/pic32c/8.3.1/../../../../pic32c/lib/thumb/v6-m/nofp\libm-emfloat.a(lib_a-_LOG.o)
 .bss           0x00000000        0x0 c:/program files/microchip/xc32/v4.00/bin/bin/../../lib/gcc/pic32c/8.3.1/../../../../pic32c/lib/thumb/v6-m/nofp\libm-emfloat.a(lib_a-_LOG.o)
 .xc_stack_usage
                0x00000000      0x2ec c:/program files/microchip/xc32/v4.00/bin/bin/../../lib/gcc/pic32c/8.3.1/../../../../pic32c/lib/thumb/v6-m/nofp\libm-emfloat.a(lib_a-_LOG.o)
 .text.__SEGGER_RTL_float64_PolyEvalP
                0x00000000       0x28 c:/program files/microchip/xc32/v4.00/bin/bin/../../lib/gcc/pic32c/8.3.1/../../../../pic32c/lib/thumb/v6-m/nofp\libm-emfloat.a(lib_a-_LOG.o)
 .text.__SEGGER_RTL_float64_PolyEvalQ
                0x00000000       0x38 c:/program files/microchip/xc32/v4.00/bin/bin/../../lib/gcc/pic32c/8.3.1/../../../../pic32c/lib/thumb/v6-m/nofp\libm-emfloat.a(lib_a-_LOG.o)
 .text.__SEGGER_RTL_float64_cdiv
                0x00000000      0x2bc c:/program files/microchip/xc32/v4.00/bin/bin/../../lib/gcc/pic32c/8.3.1/../../../../pic32c/lib/thumb/v6-m/nofp\libm-emfloat.a(lib_a-_LOG.o)
 .text.__SEGGER_RTL_float64_cmplx
                0x00000000       0x14 c:/program files/microchip/xc32/v4.00/bin/bin/../../lib/gcc/pic32c/8.3.1/../../../../pic32c/lib/thumb/v6-m/nofp\libm-emfloat.a(lib_a-_LOG.o)
 .text.__mulsc3
                0x00000000      0x24c c:/program files/microchip/xc32/v4.00/bin/bin/../../lib/gcc/pic32c/8.3.1/../../../../pic32c/lib/thumb/v6-m/nofp\libm-emfloat.a(lib_a-_LOG.o)
 .text.__divdc3
                0x00000000       0x40 c:/program files/microchip/xc32/v4.00/bin/bin/../../lib/gcc/pic32c/8.3.1/../../../../pic32c/lib/thumb/v6-m/nofp\libm-emfloat.a(lib_a-_LOG.o)
 .text.__SEGGER_RTL_float32_isnan
                0x00000000       0x10 c:/program files/microchip/xc32/v4.00/bin/bin/../../lib/gcc/pic32c/8.3.1/../../../../pic32c/lib/thumb/v6-m/nofp\libm-emfloat.a(lib_a-_LOG.o)
 .text.__SEGGER_RTL_float32_isinf
                0x00000000       0x10 c:/program files/microchip/xc32/v4.00/bin/bin/../../lib/gcc/pic32c/8.3.1/../../../../pic32c/lib/thumb/v6-m/nofp\libm-emfloat.a(lib_a-_LOG.o)
 .text.__SEGGER_RTL_float32_isfinite
                0x00000000       0x10 c:/program files/microchip/xc32/v4.00/bin/bin/../../lib/gcc/pic32c/8.3.1/../../../../pic32c/lib/thumb/v6-m/nofp\libm-emfloat.a(lib_a-_LOG.o)
 .text.__SEGGER_RTL_float32_isnormal
                0x00000000       0x18 c:/program files/microchip/xc32/v4.00/bin/bin/../../lib/gcc/pic32c/8.3.1/../../../../pic32c/lib/thumb/v6-m/nofp\libm-emfloat.a(lib_a-_LOG.o)
 .text.__SEGGER_RTL_float32_signbit
                0x00000000        0x4 c:/program files/microchip/xc32/v4.00/bin/bin/../../lib/gcc/pic32c/8.3.1/../../../../pic32c/lib/thumb/v6-m/nofp\libm-emfloat.a(lib_a-_LOG.o)
 .text.__SEGGER_RTL_float32_classify
                0x00000000       0x2c c:/program files/microchip/xc32/v4.00/bin/bin/../../lib/gcc/pic32c/8.3.1/../../../../pic32c/lib/thumb/v6-m/nofp\libm-emfloat.a(lib_a-_LOG.o)
 .text.__SEGGER_RTL_float64_isnan
                0x00000000       0x10 c:/program files/microchip/xc32/v4.00/bin/bin/../../lib/gcc/pic32c/8.3.1/../../../../pic32c/lib/thumb/v6-m/nofp\libm-emfloat.a(lib_a-_LOG.o)
 .text.__SEGGER_RTL_float64_isinf
                0x00000000       0x10 c:/program files/microchip/xc32/v4.00/bin/bin/../../lib/gcc/pic32c/8.3.1/../../../../pic32c/lib/thumb/v6-m/nofp\libm-emfloat.a(lib_a-_LOG.o)
 .text.__SEGGER_RTL_float64_isfinite
                0x00000000       0x10 c:/program files/microchip/xc32/v4.00/bin/bin/../../lib/gcc/pic32c/8.3.1/../../../../pic32c/lib/thumb/v6-m/nofp\libm-emfloat.a(lib_a-_LOG.o)
 .text.__SEGGER_RTL_float64_isnormal
                0x00000000       0x24 c:/program files/microchip/xc32/v4.00/bin/bin/../../lib/gcc/pic32c/8.3.1/../../../../pic32c/lib/thumb/v6-m/nofp\libm-emfloat.a(lib_a-_LOG.o)
 .text.__SEGGER_RTL_float64_signbit
                0x00000000        0x4 c:/program files/microchip/xc32/v4.00/bin/bin/../../lib/gcc/pic32c/8.3.1/../../../../pic32c/lib/thumb/v6-m/nofp\libm-emfloat.a(lib_a-_LOG.o)
 .text.__SEGGER_RTL_float64_classify
                0x00000000       0x44 c:/program files/microchip/xc32/v4.00/bin/bin/../../lib/gcc/pic32c/8.3.1/../../../../pic32c/lib/thumb/v6-m/nofp\libm-emfloat.a(lib_a-_LOG.o)
 .text.log      0x00000000      0x1cc c:/program files/microchip/xc32/v4.00/bin/bin/../../lib/gcc/pic32c/8.3.1/../../../../pic32c/lib/thumb/v6-m/nofp\libm-emfloat.a(lib_a-_LOG.o)
 .text.logl     0x00000000        0x8 c:/program files/microchip/xc32/v4.00/bin/bin/../../lib/gcc/pic32c/8.3.1/../../../../pic32c/lib/thumb/v6-m/nofp\libm-emfloat.a(lib_a-_LOG.o)
 .rodata        0x00000000       0x28 c:/program files/microchip/xc32/v4.00/bin/bin/../../lib/gcc/pic32c/8.3.1/../../../../pic32c/lib/thumb/v6-m/nofp\libm-emfloat.a(lib_a-_LOG.o)
 .xc_stack_usage.hdr
                0x00000000        0xe c:/program files/microchip/xc32/v4.00/bin/bin/../../lib/gcc/pic32c/8.3.1/../../../../pic32c/lib/thumb/v6-m/nofp\libm-emfloat.a(lib_a-_LOG.o)
 .comment       0x00000000       0x54 c:/program files/microchip/xc32/v4.00/bin/bin/../../lib/gcc/pic32c/8.3.1/../../../../pic32c/lib/thumb/v6-m/nofp\libm-emfloat.a(lib_a-_LOG.o)
 .ARM.attributes
                0x00000000       0x2c c:/program files/microchip/xc32/v4.00/bin/bin/../../lib/gcc/pic32c/8.3.1/../../../../pic32c/lib/thumb/v6-m/nofp\libm-emfloat.a(lib_a-_LOG.o)
 .text          0x00000000        0x0 c:/program files/microchip/xc32/v4.00/bin/bin/../../lib/gcc/pic32c/8.3.1/../../../../pic32c/lib/thumb/v6-m/nofp\libm-emfloat.a(lib_a-_FREXP.o)
 .data          0x00000000        0x0 c:/program files/microchip/xc32/v4.00/bin/bin/../../lib/gcc/pic32c/8.3.1/../../../../pic32c/lib/thumb/v6-m/nofp\libm-emfloat.a(lib_a-_FREXP.o)
 .bss           0x00000000        0x0 c:/program files/microchip/xc32/v4.00/bin/bin/../../lib/gcc/pic32c/8.3.1/../../../../pic32c/lib/thumb/v6-m/nofp\libm-emfloat.a(lib_a-_FREXP.o)
 .xc_stack_usage
                0x00000000      0x298 c:/program files/microchip/xc32/v4.00/bin/bin/../../lib/gcc/pic32c/8.3.1/../../../../pic32c/lib/thumb/v6-m/nofp\libm-emfloat.a(lib_a-_FREXP.o)
 .text.__SEGGER_RTL_float64_cdiv
                0x00000000      0x2bc c:/program files/microchip/xc32/v4.00/bin/bin/../../lib/gcc/pic32c/8.3.1/../../../../pic32c/lib/thumb/v6-m/nofp\libm-emfloat.a(lib_a-_FREXP.o)
 .text.__SEGGER_RTL_float64_cmplx
                0x00000000       0x14 c:/program files/microchip/xc32/v4.00/bin/bin/../../lib/gcc/pic32c/8.3.1/../../../../pic32c/lib/thumb/v6-m/nofp\libm-emfloat.a(lib_a-_FREXP.o)
 .text.__mulsc3
                0x00000000      0x24c c:/program files/microchip/xc32/v4.00/bin/bin/../../lib/gcc/pic32c/8.3.1/../../../../pic32c/lib/thumb/v6-m/nofp\libm-emfloat.a(lib_a-_FREXP.o)
 .text.__divdc3
                0x00000000       0x40 c:/program files/microchip/xc32/v4.00/bin/bin/../../lib/gcc/pic32c/8.3.1/../../../../pic32c/lib/thumb/v6-m/nofp\libm-emfloat.a(lib_a-_FREXP.o)
 .text.__SEGGER_RTL_float32_isnan
                0x00000000       0x10 c:/program files/microchip/xc32/v4.00/bin/bin/../../lib/gcc/pic32c/8.3.1/../../../../pic32c/lib/thumb/v6-m/nofp\libm-emfloat.a(lib_a-_FREXP.o)
 .text.__SEGGER_RTL_float32_isinf
                0x00000000       0x10 c:/program files/microchip/xc32/v4.00/bin/bin/../../lib/gcc/pic32c/8.3.1/../../../../pic32c/lib/thumb/v6-m/nofp\libm-emfloat.a(lib_a-_FREXP.o)
 .text.__SEGGER_RTL_float32_isfinite
                0x00000000       0x10 c:/program files/microchip/xc32/v4.00/bin/bin/../../lib/gcc/pic32c/8.3.1/../../../../pic32c/lib/thumb/v6-m/nofp\libm-emfloat.a(lib_a-_FREXP.o)
 .text.__SEGGER_RTL_float32_isnormal
                0x00000000       0x18 c:/program files/microchip/xc32/v4.00/bin/bin/../../lib/gcc/pic32c/8.3.1/../../../../pic32c/lib/thumb/v6-m/nofp\libm-emfloat.a(lib_a-_FREXP.o)
 .text.__SEGGER_RTL_float32_signbit
                0x00000000        0x4 c:/program files/microchip/xc32/v4.00/bin/bin/../../lib/gcc/pic32c/8.3.1/../../../../pic32c/lib/thumb/v6-m/nofp\libm-emfloat.a(lib_a-_FREXP.o)
 .text.__SEGGER_RTL_float32_classify
                0x00000000       0x2c c:/program files/microchip/xc32/v4.00/bin/bin/../../lib/gcc/pic32c/8.3.1/../../../../pic32c/lib/thumb/v6-m/nofp\libm-emfloat.a(lib_a-_FREXP.o)
 .text.__SEGGER_RTL_float64_isnan
                0x00000000       0x10 c:/program files/microchip/xc32/v4.00/bin/bin/../../lib/gcc/pic32c/8.3.1/../../../../pic32c/lib/thumb/v6-m/nofp\libm-emfloat.a(lib_a-_FREXP.o)
 .text.__SEGGER_RTL_float64_isinf
                0x00000000       0x10 c:/program files/microchip/xc32/v4.00/bin/bin/../../lib/gcc/pic32c/8.3.1/../../../../pic32c/lib/thumb/v6-m/nofp\libm-emfloat.a(lib_a-_FREXP.o)
 .text.__SEGGER_RTL_float64_isfinite
                0x00000000       0x10 c:/program files/microchip/xc32/v4.00/bin/bin/../../lib/gcc/pic32c/8.3.1/../../../../pic32c/lib/thumb/v6-m/nofp\libm-emfloat.a(lib_a-_FREXP.o)
 .text.__SEGGER_RTL_float64_isnormal
                0x00000000       0x24 c:/program files/microchip/xc32/v4.00/bin/bin/../../lib/gcc/pic32c/8.3.1/../../../../pic32c/lib/thumb/v6-m/nofp\libm-emfloat.a(lib_a-_FREXP.o)
 .text.__SEGGER_RTL_float64_signbit
                0x00000000        0x4 c:/program files/microchip/xc32/v4.00/bin/bin/../../lib/gcc/pic32c/8.3.1/../../../../pic32c/lib/thumb/v6-m/nofp\libm-emfloat.a(lib_a-_FREXP.o)
 .text.__SEGGER_RTL_float64_classify
                0x00000000       0x44 c:/program files/microchip/xc32/v4.00/bin/bin/../../lib/gcc/pic32c/8.3.1/../../../../pic32c/lib/thumb/v6-m/nofp\libm-emfloat.a(lib_a-_FREXP.o)
 .text.frexp    0x00000000       0x40 c:/program files/microchip/xc32/v4.00/bin/bin/../../lib/gcc/pic32c/8.3.1/../../../../pic32c/lib/thumb/v6-m/nofp\libm-emfloat.a(lib_a-_FREXP.o)
 .text.frexpl   0x00000000        0x8 c:/program files/microchip/xc32/v4.00/bin/bin/../../lib/gcc/pic32c/8.3.1/../../../../pic32c/lib/thumb/v6-m/nofp\libm-emfloat.a(lib_a-_FREXP.o)
 .xc_stack_usage.hdr
                0x00000000        0xe c:/program files/microchip/xc32/v4.00/bin/bin/../../lib/gcc/pic32c/8.3.1/../../../../pic32c/lib/thumb/v6-m/nofp\libm-emfloat.a(lib_a-_FREXP.o)
 .comment       0x00000000       0x54 c:/program files/microchip/xc32/v4.00/bin/bin/../../lib/gcc/pic32c/8.3.1/../../../../pic32c/lib/thumb/v6-m/nofp\libm-emfloat.a(lib_a-_FREXP.o)
 .ARM.attributes
                0x00000000       0x2c c:/program files/microchip/xc32/v4.00/bin/bin/../../lib/gcc/pic32c/8.3.1/../../../../pic32c/lib/thumb/v6-m/nofp\libm-emfloat.a(lib_a-_FREXP.o)
 .text          0x00000000        0x0 c:/program files/microchip/xc32/v4.00/bin/bin/../../lib/gcc/pic32c/8.3.1/../../../../pic32c/lib/thumb/v6-m/nofp\libc-musl.a(__libc_start_main.o)
 .data          0x00000000        0x0 c:/program files/microchip/xc32/v4.00/bin/bin/../../lib/gcc/pic32c/8.3.1/../../../../pic32c/lib/thumb/v6-m/nofp\libc-musl.a(__libc_start_main.o)
 .bss           0x00000000        0x0 c:/program files/microchip/xc32/v4.00/bin/bin/../../lib/gcc/pic32c/8.3.1/../../../../pic32c/lib/thumb/v6-m/nofp\libc-musl.a(__libc_start_main.o)
 .xc_stack_usage
                0x00000000       0x34 c:/program files/microchip/xc32/v4.00/bin/bin/../../lib/gcc/pic32c/8.3.1/../../../../pic32c/lib/thumb/v6-m/nofp\libc-musl.a(__libc_start_main.o)
 .xc_stack_usage.hdr
                0x00000000        0xe c:/program files/microchip/xc32/v4.00/bin/bin/../../lib/gcc/pic32c/8.3.1/../../../../pic32c/lib/thumb/v6-m/nofp\libc-musl.a(__libc_start_main.o)
 .text          0x00000000        0x0 c:/program files/microchip/xc32/v4.00/bin/bin/../../lib/gcc/pic32c/8.3.1/../../../../pic32c/lib/thumb/v6-m/nofp\libc-musl.a(__errno_location.o)
 .data          0x00000000        0x0 c:/program files/microchip/xc32/v4.00/bin/bin/../../lib/gcc/pic32c/8.3.1/../../../../pic32c/lib/thumb/v6-m/nofp\libc-musl.a(__errno_location.o)
 .xc_stack_usage.hdr
                0x00000000        0xe c:/program files/microchip/xc32/v4.00/bin/bin/../../lib/gcc/pic32c/8.3.1/../../../../pic32c/lib/thumb/v6-m/nofp\libc-musl.a(__errno_location.o)
 .text          0x00000000        0x0 c:/program files/microchip/xc32/v4.00/bin/bin/../../lib/gcc/pic32c/8.3.1/../../../../pic32c/lib/thumb/v6-m/nofp\libc-musl.a(libc.o)
 .data          0x00000000        0x0 c:/program files/microchip/xc32/v4.00/bin/bin/../../lib/gcc/pic32c/8.3.1/../../../../pic32c/lib/thumb/v6-m/nofp\libc-musl.a(libc.o)
 .xc_stack_usage.hdr
                0x00000000        0xe c:/program files/microchip/xc32/v4.00/bin/bin/../../lib/gcc/pic32c/8.3.1/../../../../pic32c/lib/thumb/v6-m/nofp\libc-musl.a(libc.o)
 .text          0x00000000        0x0 c:/program files/microchip/xc32/v4.00/bin/bin/../../lib/gcc/pic32c/8.3.1/../../../../pic32c/lib/thumb/v6-m/nofp\libc-musl.a(__sio_sprintf_fs.o)
 .data          0x00000000        0x0 c:/program files/microchip/xc32/v4.00/bin/bin/../../lib/gcc/pic32c/8.3.1/../../../../pic32c/lib/thumb/v6-m/nofp\libc-musl.a(__sio_sprintf_fs.o)
 .bss           0x00000000        0x0 c:/program files/microchip/xc32/v4.00/bin/bin/../../lib/gcc/pic32c/8.3.1/../../../../pic32c/lib/thumb/v6-m/nofp\libc-musl.a(__sio_sprintf_fs.o)
 .xc_stack_usage
                0x00000000       0x3a c:/program files/microchip/xc32/v4.00/bin/bin/../../lib/gcc/pic32c/8.3.1/../../../../pic32c/lib/thumb/v6-m/nofp\libc-musl.a(__sio_sprintf_fs.o)
 .text.__sio_sprintf_fs
                0x00000000        0xc c:/program files/microchip/xc32/v4.00/bin/bin/../../lib/gcc/pic32c/8.3.1/../../../../pic32c/lib/thumb/v6-m/nofp\libc-musl.a(__sio_sprintf_fs.o)
 .xc_stack_usage.hdr
                0x00000000        0xe c:/program files/microchip/xc32/v4.00/bin/bin/../../lib/gcc/pic32c/8.3.1/../../../../pic32c/lib/thumb/v6-m/nofp\libc-musl.a(__sio_sprintf_fs.o)
 .text          0x00000000        0x0 c:/program files/microchip/xc32/v4.00/bin/bin/../../lib/gcc/pic32c/8.3.1/../../../../pic32c/lib/thumb/v6-m/nofp\libc-musl.a(__fmt_fp.o)
 .data          0x00000000        0x0 c:/program files/microchip/xc32/v4.00/bin/bin/../../lib/gcc/pic32c/8.3.1/../../../../pic32c/lib/thumb/v6-m/nofp\libc-musl.a(__fmt_fp.o)
 .bss           0x00000000        0x0 c:/program files/microchip/xc32/v4.00/bin/bin/../../lib/gcc/pic32c/8.3.1/../../../../pic32c/lib/thumb/v6-m/nofp\libc-musl.a(__fmt_fp.o)
 .xc_stack_usage
                0x00000000       0x16 c:/program files/microchip/xc32/v4.00/bin/bin/../../lib/gcc/pic32c/8.3.1/../../../../pic32c/lib/thumb/v6-m/nofp\libc-musl.a(__fmt_fp.o)
 .xc_stack_usage.hdr
                0x00000000        0xe c:/program files/microchip/xc32/v4.00/bin/bin/../../lib/gcc/pic32c/8.3.1/../../../../pic32c/lib/thumb/v6-m/nofp\libc-musl.a(__fmt_fp.o)
 .text          0x00000000        0x0 c:/program files/microchip/xc32/v4.00/bin/bin/../../lib/gcc/pic32c/8.3.1/../../../../pic32c/lib/thumb/v6-m/nofp\libc-musl.a(__fmt_s.o)
 .data          0x00000000        0x0 c:/program files/microchip/xc32/v4.00/bin/bin/../../lib/gcc/pic32c/8.3.1/../../../../pic32c/lib/thumb/v6-m/nofp\libc-musl.a(__fmt_s.o)
 .bss           0x00000000        0x0 c:/program files/microchip/xc32/v4.00/bin/bin/../../lib/gcc/pic32c/8.3.1/../../../../pic32c/lib/thumb/v6-m/nofp\libc-musl.a(__fmt_s.o)
 .xc_stack_usage
                0x00000000       0x15 c:/program files/microchip/xc32/v4.00/bin/bin/../../lib/gcc/pic32c/8.3.1/../../../../pic32c/lib/thumb/v6-m/nofp\libc-musl.a(__fmt_s.o)
 .xc_stack_usage.hdr
                0x00000000        0xe c:/program files/microchip/xc32/v4.00/bin/bin/../../lib/gcc/pic32c/8.3.1/../../../../pic32c/lib/thumb/v6-m/nofp\libc-musl.a(__fmt_s.o)
 .text          0x00000000        0x0 c:/program files/microchip/xc32/v4.00/bin/bin/../../lib/gcc/pic32c/8.3.1/../../../../pic32c/lib/thumb/v6-m/nofp\libc-musl.a(__printf_core.o)
 .data          0x00000000        0x0 c:/program files/microchip/xc32/v4.00/bin/bin/../../lib/gcc/pic32c/8.3.1/../../../../pic32c/lib/thumb/v6-m/nofp\libc-musl.a(__printf_core.o)
 .bss           0x00000000        0x0 c:/program files/microchip/xc32/v4.00/bin/bin/../../lib/gcc/pic32c/8.3.1/../../../../pic32c/lib/thumb/v6-m/nofp\libc-musl.a(__printf_core.o)
 .xc_stack_usage
                0x00000000       0xaf c:/program files/microchip/xc32/v4.00/bin/bin/../../lib/gcc/pic32c/8.3.1/../../../../pic32c/lib/thumb/v6-m/nofp\libc-musl.a(__printf_core.o)
 .text.__dummy_fmts
                0x00000000        0x4 c:/program files/microchip/xc32/v4.00/bin/bin/../../lib/gcc/pic32c/8.3.1/../../../../pic32c/lib/thumb/v6-m/nofp\libc-musl.a(__printf_core.o)
 .xc_stack_usage.hdr
                0x00000000        0xe c:/program files/microchip/xc32/v4.00/bin/bin/../../lib/gcc/pic32c/8.3.1/../../../../pic32c/lib/thumb/v6-m/nofp\libc-musl.a(__printf_core.o)
 .text          0x00000000        0x0 c:/program files/microchip/xc32/v4.00/bin/bin/../../lib/gcc/pic32c/8.3.1/../../../../pic32c/lib/thumb/v6-m/nofp\libc-musl.a(atoi.o)
 .data          0x00000000        0x0 c:/program files/microchip/xc32/v4.00/bin/bin/../../lib/gcc/pic32c/8.3.1/../../../../pic32c/lib/thumb/v6-m/nofp\libc-musl.a(atoi.o)
 .bss           0x00000000        0x0 c:/program files/microchip/xc32/v4.00/bin/bin/../../lib/gcc/pic32c/8.3.1/../../../../pic32c/lib/thumb/v6-m/nofp\libc-musl.a(atoi.o)
 .xc_stack_usage
                0x00000000       0x12 c:/program files/microchip/xc32/v4.00/bin/bin/../../lib/gcc/pic32c/8.3.1/../../../../pic32c/lib/thumb/v6-m/nofp\libc-musl.a(atoi.o)
 .xc_stack_usage.hdr
                0x00000000        0xe c:/program files/microchip/xc32/v4.00/bin/bin/../../lib/gcc/pic32c/8.3.1/../../../../pic32c/lib/thumb/v6-m/nofp\libc-musl.a(atoi.o)
 .text          0x00000000        0x0 c:/program files/microchip/xc32/v4.00/bin/bin/../../lib/gcc/pic32c/8.3.1/../../../../pic32c/lib/thumb/v6-m/nofp\libc-musl.a(memcpy.o)
 .data          0x00000000        0x0 c:/program files/microchip/xc32/v4.00/bin/bin/../../lib/gcc/pic32c/8.3.1/../../../../pic32c/lib/thumb/v6-m/nofp\libc-musl.a(memcpy.o)
 .bss           0x00000000        0x0 c:/program files/microchip/xc32/v4.00/bin/bin/../../lib/gcc/pic32c/8.3.1/../../../../pic32c/lib/thumb/v6-m/nofp\libc-musl.a(memcpy.o)
 .xc_stack_usage
                0x00000000       0x14 c:/program files/microchip/xc32/v4.00/bin/bin/../../lib/gcc/pic32c/8.3.1/../../../../pic32c/lib/thumb/v6-m/nofp\libc-musl.a(memcpy.o)
 .xc_stack_usage.hdr
                0x00000000        0xe c:/program files/microchip/xc32/v4.00/bin/bin/../../lib/gcc/pic32c/8.3.1/../../../../pic32c/lib/thumb/v6-m/nofp\libc-musl.a(memcpy.o)
 .text          0x00000000        0x0 c:/program files/microchip/xc32/v4.00/bin/bin/../../lib/gcc/pic32c/8.3.1/../../../../pic32c/lib/thumb/v6-m/nofp\libc-musl.a(memset.o)
 .data          0x00000000        0x0 c:/program files/microchip/xc32/v4.00/bin/bin/../../lib/gcc/pic32c/8.3.1/../../../../pic32c/lib/thumb/v6-m/nofp\libc-musl.a(memset.o)
 .bss           0x00000000        0x0 c:/program files/microchip/xc32/v4.00/bin/bin/../../lib/gcc/pic32c/8.3.1/../../../../pic32c/lib/thumb/v6-m/nofp\libc-musl.a(memset.o)
 .xc_stack_usage
                0x00000000       0x14 c:/program files/microchip/xc32/v4.00/bin/bin/../../lib/gcc/pic32c/8.3.1/../../../../pic32c/lib/thumb/v6-m/nofp\libc-musl.a(memset.o)
 .xc_stack_usage.hdr
                0x00000000        0xe c:/program files/microchip/xc32/v4.00/bin/bin/../../lib/gcc/pic32c/8.3.1/../../../../pic32c/lib/thumb/v6-m/nofp\libc-musl.a(memset.o)
 .text          0x00000000        0x0 c:/program files/microchip/xc32/v4.00/bin/bin/../../lib/gcc/pic32c/8.3.1/../../../../pic32c/lib/thumb/v6-m/nofp\libc-musl.a(strlen.o)
 .data          0x00000000        0x0 c:/program files/microchip/xc32/v4.00/bin/bin/../../lib/gcc/pic32c/8.3.1/../../../../pic32c/lib/thumb/v6-m/nofp\libc-musl.a(strlen.o)
 .bss           0x00000000        0x0 c:/program files/microchip/xc32/v4.00/bin/bin/../../lib/gcc/pic32c/8.3.1/../../../../pic32c/lib/thumb/v6-m/nofp\libc-musl.a(strlen.o)
 .xc_stack_usage
                0x00000000       0x14 c:/program files/microchip/xc32/v4.00/bin/bin/../../lib/gcc/pic32c/8.3.1/../../../../pic32c/lib/thumb/v6-m/nofp\libc-musl.a(strlen.o)
 .xc_stack_usage.hdr
                0x00000000        0xe c:/program files/microchip/xc32/v4.00/bin/bin/../../lib/gcc/pic32c/8.3.1/../../../../pic32c/lib/thumb/v6-m/nofp\libc-musl.a(strlen.o)
 .text          0x00000000        0x0 c:/program files/microchip/xc32/v4.00/bin/bin/../../lib/gcc/pic32c/8.3.1/../../../../pic32c/lib/thumb/v6-m/nofp\libc-musl.a(strcpy.o)
 .data          0x00000000        0x0 c:/program files/microchip/xc32/v4.00/bin/bin/../../lib/gcc/pic32c/8.3.1/../../../../pic32c/lib/thumb/v6-m/nofp\libc-musl.a(strcpy.o)
 .bss           0x00000000        0x0 c:/program files/microchip/xc32/v4.00/bin/bin/../../lib/gcc/pic32c/8.3.1/../../../../pic32c/lib/thumb/v6-m/nofp\libc-musl.a(strcpy.o)
 .xc_stack_usage
                0x00000000       0x14 c:/program files/microchip/xc32/v4.00/bin/bin/../../lib/gcc/pic32c/8.3.1/../../../../pic32c/lib/thumb/v6-m/nofp\libc-musl.a(strcpy.o)
 .xc_stack_usage.hdr
                0x00000000        0xe c:/program files/microchip/xc32/v4.00/bin/bin/../../lib/gcc/pic32c/8.3.1/../../../../pic32c/lib/thumb/v6-m/nofp\libc-musl.a(strcpy.o)
 .text          0x00000000        0x0 c:/program files/microchip/xc32/v4.00/bin/bin/../../lib/gcc/pic32c/8.3.1/../../../../pic32c/lib/thumb/v6-m/nofp\libc-musl.a(tolower.o)
 .data          0x00000000        0x0 c:/program files/microchip/xc32/v4.00/bin/bin/../../lib/gcc/pic32c/8.3.1/../../../../pic32c/lib/thumb/v6-m/nofp\libc-musl.a(tolower.o)
 .bss           0x00000000        0x0 c:/program files/microchip/xc32/v4.00/bin/bin/../../lib/gcc/pic32c/8.3.1/../../../../pic32c/lib/thumb/v6-m/nofp\libc-musl.a(tolower.o)
 .xc_stack_usage
                0x00000000       0x2e c:/program files/microchip/xc32/v4.00/bin/bin/../../lib/gcc/pic32c/8.3.1/../../../../pic32c/lib/thumb/v6-m/nofp\libc-musl.a(tolower.o)
 .text.__tolower_l
                0x00000000        0x8 c:/program files/microchip/xc32/v4.00/bin/bin/../../lib/gcc/pic32c/8.3.1/../../../../pic32c/lib/thumb/v6-m/nofp\libc-musl.a(tolower.o)
 .xc_stack_usage.hdr
                0x00000000        0xe c:/program files/microchip/xc32/v4.00/bin/bin/../../lib/gcc/pic32c/8.3.1/../../../../pic32c/lib/thumb/v6-m/nofp\libc-musl.a(tolower.o)
 .text          0x00000000        0x0 c:/program files/microchip/xc32/v4.00/bin/bin/../../lib/gcc/pic32c/8.3.1/../../../../pic32c/lib/thumb/v6-m/nofp\libc-musl.a(__environ.o)
 .data          0x00000000        0x0 c:/program files/microchip/xc32/v4.00/bin/bin/../../lib/gcc/pic32c/8.3.1/../../../../pic32c/lib/thumb/v6-m/nofp\libc-musl.a(__environ.o)
 .xc_stack_usage.hdr
                0x00000000        0xe c:/program files/microchip/xc32/v4.00/bin/bin/../../lib/gcc/pic32c/8.3.1/../../../../pic32c/lib/thumb/v6-m/nofp\libc-musl.a(__environ.o)
 .text          0x00000000        0x0 c:/program files/microchip/xc32/v4.00/bin/bin/../../lib/gcc/pic32c/8.3.1/../../../../pic32c/lib/thumb/v6-m/nofp\libc-musl.a(__int_vsprintf.o)
 .data          0x00000000        0x0 c:/program files/microchip/xc32/v4.00/bin/bin/../../lib/gcc/pic32c/8.3.1/../../../../pic32c/lib/thumb/v6-m/nofp\libc-musl.a(__int_vsprintf.o)
 .bss           0x00000000        0x0 c:/program files/microchip/xc32/v4.00/bin/bin/../../lib/gcc/pic32c/8.3.1/../../../../pic32c/lib/thumb/v6-m/nofp\libc-musl.a(__int_vsprintf.o)
 .xc_stack_usage
                0x00000000       0x18 c:/program files/microchip/xc32/v4.00/bin/bin/../../lib/gcc/pic32c/8.3.1/../../../../pic32c/lib/thumb/v6-m/nofp\libc-musl.a(__int_vsprintf.o)
 .xc_stack_usage.hdr
                0x00000000        0xe c:/program files/microchip/xc32/v4.00/bin/bin/../../lib/gcc/pic32c/8.3.1/../../../../pic32c/lib/thumb/v6-m/nofp\libc-musl.a(__int_vsprintf.o)
 .text          0x00000000        0x0 c:/program files/microchip/xc32/v4.00/bin/bin/../../lib/gcc/pic32c/8.3.1/../../../../pic32c/lib/thumb/v6-m/nofp\libc-musl.a(__pop_float.o)
 .data          0x00000000        0x0 c:/program files/microchip/xc32/v4.00/bin/bin/../../lib/gcc/pic32c/8.3.1/../../../../pic32c/lib/thumb/v6-m/nofp\libc-musl.a(__pop_float.o)
 .bss           0x00000000        0x0 c:/program files/microchip/xc32/v4.00/bin/bin/../../lib/gcc/pic32c/8.3.1/../../../../pic32c/lib/thumb/v6-m/nofp\libc-musl.a(__pop_float.o)
 .xc_stack_usage
                0x00000000       0x19 c:/program files/microchip/xc32/v4.00/bin/bin/../../lib/gcc/pic32c/8.3.1/../../../../pic32c/lib/thumb/v6-m/nofp\libc-musl.a(__pop_float.o)
 .xc_stack_usage.hdr
                0x00000000        0xe c:/program files/microchip/xc32/v4.00/bin/bin/../../lib/gcc/pic32c/8.3.1/../../../../pic32c/lib/thumb/v6-m/nofp\libc-musl.a(__pop_float.o)
 .text          0x00000000        0x0 c:/program files/microchip/xc32/v4.00/bin/bin/../../lib/gcc/pic32c/8.3.1/../../../../pic32c/lib/thumb/v6-m/nofp\libc-musl.a(__pop_int.o)
 .data          0x00000000        0x0 c:/program files/microchip/xc32/v4.00/bin/bin/../../lib/gcc/pic32c/8.3.1/../../../../pic32c/lib/thumb/v6-m/nofp\libc-musl.a(__pop_int.o)
 .bss           0x00000000        0x0 c:/program files/microchip/xc32/v4.00/bin/bin/../../lib/gcc/pic32c/8.3.1/../../../../pic32c/lib/thumb/v6-m/nofp\libc-musl.a(__pop_int.o)
 .xc_stack_usage
                0x00000000       0x17 c:/program files/microchip/xc32/v4.00/bin/bin/../../lib/gcc/pic32c/8.3.1/../../../../pic32c/lib/thumb/v6-m/nofp\libc-musl.a(__pop_int.o)
 .xc_stack_usage.hdr
                0x00000000        0xe c:/program files/microchip/xc32/v4.00/bin/bin/../../lib/gcc/pic32c/8.3.1/../../../../pic32c/lib/thumb/v6-m/nofp\libc-musl.a(__pop_int.o)
 .text          0x00000000        0x0 c:/program files/microchip/xc32/v4.00/bin/bin/../../lib/gcc/pic32c/8.3.1/../../../../pic32c/lib/thumb/v6-m/nofp\libc-musl.a(__pop_ptr.o)
 .data          0x00000000        0x0 c:/program files/microchip/xc32/v4.00/bin/bin/../../lib/gcc/pic32c/8.3.1/../../../../pic32c/lib/thumb/v6-m/nofp\libc-musl.a(__pop_ptr.o)
 .bss           0x00000000        0x0 c:/program files/microchip/xc32/v4.00/bin/bin/../../lib/gcc/pic32c/8.3.1/../../../../pic32c/lib/thumb/v6-m/nofp\libc-musl.a(__pop_ptr.o)
 .xc_stack_usage
                0x00000000       0x17 c:/program files/microchip/xc32/v4.00/bin/bin/../../lib/gcc/pic32c/8.3.1/../../../../pic32c/lib/thumb/v6-m/nofp\libc-musl.a(__pop_ptr.o)
 .xc_stack_usage.hdr
                0x00000000        0xe c:/program files/microchip/xc32/v4.00/bin/bin/../../lib/gcc/pic32c/8.3.1/../../../../pic32c/lib/thumb/v6-m/nofp\libc-musl.a(__pop_ptr.o)
 .text          0x00000000        0x0 c:/program files/microchip/xc32/v4.00/bin/bin/../../lib/gcc/pic32c/8.3.1/../../../../pic32c/lib/thumb/v6-m/nofp\libc-musl.a(stpcpy.o)
 .data          0x00000000        0x0 c:/program files/microchip/xc32/v4.00/bin/bin/../../lib/gcc/pic32c/8.3.1/../../../../pic32c/lib/thumb/v6-m/nofp\libc-musl.a(stpcpy.o)
 .bss           0x00000000        0x0 c:/program files/microchip/xc32/v4.00/bin/bin/../../lib/gcc/pic32c/8.3.1/../../../../pic32c/lib/thumb/v6-m/nofp\libc-musl.a(stpcpy.o)
 .xc_stack_usage
                0x00000000       0x14 c:/program files/microchip/xc32/v4.00/bin/bin/../../lib/gcc/pic32c/8.3.1/../../../../pic32c/lib/thumb/v6-m/nofp\libc-musl.a(stpcpy.o)
 .xc_stack_usage.hdr
                0x00000000        0xe c:/program files/microchip/xc32/v4.00/bin/bin/../../lib/gcc/pic32c/8.3.1/../../../../pic32c/lib/thumb/v6-m/nofp\libc-musl.a(stpcpy.o)
 .text          0x00000000        0x0 c:/program files/microchip/xc32/v4.00/bin/bin/../../lib/gcc/pic32c/8.3.1/../../../../pic32c/lib/thumb/v6-m/nofp\libc-musl.a(__int_vsnprintf.o)
 .data          0x00000000        0x0 c:/program files/microchip/xc32/v4.00/bin/bin/../../lib/gcc/pic32c/8.3.1/../../../../pic32c/lib/thumb/v6-m/nofp\libc-musl.a(__int_vsnprintf.o)
 .bss           0x00000000        0x0 c:/program files/microchip/xc32/v4.00/bin/bin/../../lib/gcc/pic32c/8.3.1/../../../../pic32c/lib/thumb/v6-m/nofp\libc-musl.a(__int_vsnprintf.o)
 .xc_stack_usage
                0x00000000       0x19 c:/program files/microchip/xc32/v4.00/bin/bin/../../lib/gcc/pic32c/8.3.1/../../../../pic32c/lib/thumb/v6-m/nofp\libc-musl.a(__int_vsnprintf.o)
 .xc_stack_usage.hdr
                0x00000000        0xe c:/program files/microchip/xc32/v4.00/bin/bin/../../lib/gcc/pic32c/8.3.1/../../../../pic32c/lib/thumb/v6-m/nofp\libc-musl.a(__int_vsnprintf.o)
 .text          0x00000000        0x0 c:/program files/microchip/xc32/v4.00/bin/bin/../../lib/gcc/pic32c/8.3.1/../../../../pic32c/lib/thumb/v6-m/nofp\libc-musl.a(__int_vfprintf.o)
 .data          0x00000000        0x0 c:/program files/microchip/xc32/v4.00/bin/bin/../../lib/gcc/pic32c/8.3.1/../../../../pic32c/lib/thumb/v6-m/nofp\libc-musl.a(__int_vfprintf.o)
 .bss           0x00000000        0x0 c:/program files/microchip/xc32/v4.00/bin/bin/../../lib/gcc/pic32c/8.3.1/../../../../pic32c/lib/thumb/v6-m/nofp\libc-musl.a(__int_vfprintf.o)
 .xc_stack_usage
                0x00000000       0x18 c:/program files/microchip/xc32/v4.00/bin/bin/../../lib/gcc/pic32c/8.3.1/../../../../pic32c/lib/thumb/v6-m/nofp\libc-musl.a(__int_vfprintf.o)
 .xc_stack_usage.hdr
                0x00000000        0xe c:/program files/microchip/xc32/v4.00/bin/bin/../../lib/gcc/pic32c/8.3.1/../../../../pic32c/lib/thumb/v6-m/nofp\libc-musl.a(__int_vfprintf.o)
 .text          0x00000000        0x0 c:/program files/microchip/xc32/v4.00/bin/bin/../../lib/gcc/pic32c/8.3.1/../../../../pic32c/lib/thumb/v6-m/nofp\libm-emfloat.a(lib_a-_FLOOR.o)
 .data          0x00000000        0x0 c:/program files/microchip/xc32/v4.00/bin/bin/../../lib/gcc/pic32c/8.3.1/../../../../pic32c/lib/thumb/v6-m/nofp\libm-emfloat.a(lib_a-_FLOOR.o)
 .bss           0x00000000        0x0 c:/program files/microchip/xc32/v4.00/bin/bin/../../lib/gcc/pic32c/8.3.1/../../../../pic32c/lib/thumb/v6-m/nofp\libm-emfloat.a(lib_a-_FLOOR.o)
 .xc_stack_usage
                0x00000000      0x298 c:/program files/microchip/xc32/v4.00/bin/bin/../../lib/gcc/pic32c/8.3.1/../../../../pic32c/lib/thumb/v6-m/nofp\libm-emfloat.a(lib_a-_FLOOR.o)
 .text.__SEGGER_RTL_float64_cdiv
                0x00000000      0x2bc c:/program files/microchip/xc32/v4.00/bin/bin/../../lib/gcc/pic32c/8.3.1/../../../../pic32c/lib/thumb/v6-m/nofp\libm-emfloat.a(lib_a-_FLOOR.o)
 .text.__SEGGER_RTL_float64_cmplx
                0x00000000       0x14 c:/program files/microchip/xc32/v4.00/bin/bin/../../lib/gcc/pic32c/8.3.1/../../../../pic32c/lib/thumb/v6-m/nofp\libm-emfloat.a(lib_a-_FLOOR.o)
 .text.__mulsc3
                0x00000000      0x24c c:/program files/microchip/xc32/v4.00/bin/bin/../../lib/gcc/pic32c/8.3.1/../../../../pic32c/lib/thumb/v6-m/nofp\libm-emfloat.a(lib_a-_FLOOR.o)
 .text.__divdc3
                0x00000000       0x40 c:/program files/microchip/xc32/v4.00/bin/bin/../../lib/gcc/pic32c/8.3.1/../../../../pic32c/lib/thumb/v6-m/nofp\libm-emfloat.a(lib_a-_FLOOR.o)
 .text.__SEGGER_RTL_float32_isnan
                0x00000000       0x10 c:/program files/microchip/xc32/v4.00/bin/bin/../../lib/gcc/pic32c/8.3.1/../../../../pic32c/lib/thumb/v6-m/nofp\libm-emfloat.a(lib_a-_FLOOR.o)
 .text.__SEGGER_RTL_float32_isinf
                0x00000000       0x10 c:/program files/microchip/xc32/v4.00/bin/bin/../../lib/gcc/pic32c/8.3.1/../../../../pic32c/lib/thumb/v6-m/nofp\libm-emfloat.a(lib_a-_FLOOR.o)
 .text.__SEGGER_RTL_float32_isfinite
                0x00000000       0x10 c:/program files/microchip/xc32/v4.00/bin/bin/../../lib/gcc/pic32c/8.3.1/../../../../pic32c/lib/thumb/v6-m/nofp\libm-emfloat.a(lib_a-_FLOOR.o)
 .text.__SEGGER_RTL_float32_isnormal
                0x00000000       0x18 c:/program files/microchip/xc32/v4.00/bin/bin/../../lib/gcc/pic32c/8.3.1/../../../../pic32c/lib/thumb/v6-m/nofp\libm-emfloat.a(lib_a-_FLOOR.o)
 .text.__SEGGER_RTL_float32_signbit
                0x00000000        0x4 c:/program files/microchip/xc32/v4.00/bin/bin/../../lib/gcc/pic32c/8.3.1/../../../../pic32c/lib/thumb/v6-m/nofp\libm-emfloat.a(lib_a-_FLOOR.o)
 .text.__SEGGER_RTL_float32_classify
                0x00000000       0x2c c:/program files/microchip/xc32/v4.00/bin/bin/../../lib/gcc/pic32c/8.3.1/../../../../pic32c/lib/thumb/v6-m/nofp\libm-emfloat.a(lib_a-_FLOOR.o)
 .text.__SEGGER_RTL_float64_isnan
                0x00000000       0x10 c:/program files/microchip/xc32/v4.00/bin/bin/../../lib/gcc/pic32c/8.3.1/../../../../pic32c/lib/thumb/v6-m/nofp\libm-emfloat.a(lib_a-_FLOOR.o)
 .text.__SEGGER_RTL_float64_isinf
                0x00000000       0x10 c:/program files/microchip/xc32/v4.00/bin/bin/../../lib/gcc/pic32c/8.3.1/../../../../pic32c/lib/thumb/v6-m/nofp\libm-emfloat.a(lib_a-_FLOOR.o)
 .text.__SEGGER_RTL_float64_isfinite
                0x00000000       0x10 c:/program files/microchip/xc32/v4.00/bin/bin/../../lib/gcc/pic32c/8.3.1/../../../../pic32c/lib/thumb/v6-m/nofp\libm-emfloat.a(lib_a-_FLOOR.o)
 .text.__SEGGER_RTL_float64_isnormal
                0x00000000       0x24 c:/program files/microchip/xc32/v4.00/bin/bin/../../lib/gcc/pic32c/8.3.1/../../../../pic32c/lib/thumb/v6-m/nofp\libm-emfloat.a(lib_a-_FLOOR.o)
 .text.__SEGGER_RTL_float64_signbit
                0x00000000        0x4 c:/program files/microchip/xc32/v4.00/bin/bin/../../lib/gcc/pic32c/8.3.1/../../../../pic32c/lib/thumb/v6-m/nofp\libm-emfloat.a(lib_a-_FLOOR.o)
 .text.__SEGGER_RTL_float64_classify
                0x00000000       0x44 c:/program files/microchip/xc32/v4.00/bin/bin/../../lib/gcc/pic32c/8.3.1/../../../../pic32c/lib/thumb/v6-m/nofp\libm-emfloat.a(lib_a-_FLOOR.o)
 .text.floorl   0x00000000        0x8 c:/program files/microchip/xc32/v4.00/bin/bin/../../lib/gcc/pic32c/8.3.1/../../../../pic32c/lib/thumb/v6-m/nofp\libm-emfloat.a(lib_a-_FLOOR.o)
 .xc_stack_usage.hdr
                0x00000000        0xe c:/program files/microchip/xc32/v4.00/bin/bin/../../lib/gcc/pic32c/8.3.1/../../../../pic32c/lib/thumb/v6-m/nofp\libm-emfloat.a(lib_a-_FLOOR.o)
 .text          0x00000000        0x0 c:/program files/microchip/xc32/v4.00/bin/bin/../../lib/gcc/pic32c/8.3.1/../../../../pic32c/lib/thumb/v6-m/nofp\libm-emfloat.a(lib_a-_FMA.o)
 .data          0x00000000        0x0 c:/program files/microchip/xc32/v4.00/bin/bin/../../lib/gcc/pic32c/8.3.1/../../../../pic32c/lib/thumb/v6-m/nofp\libm-emfloat.a(lib_a-_FMA.o)
 .bss           0x00000000        0x0 c:/program files/microchip/xc32/v4.00/bin/bin/../../lib/gcc/pic32c/8.3.1/../../../../pic32c/lib/thumb/v6-m/nofp\libm-emfloat.a(lib_a-_FMA.o)
 .xc_stack_usage
                0x00000000      0x294 c:/program files/microchip/xc32/v4.00/bin/bin/../../lib/gcc/pic32c/8.3.1/../../../../pic32c/lib/thumb/v6-m/nofp\libm-emfloat.a(lib_a-_FMA.o)
 .text.__SEGGER_RTL_float64_cdiv
                0x00000000      0x2bc c:/program files/microchip/xc32/v4.00/bin/bin/../../lib/gcc/pic32c/8.3.1/../../../../pic32c/lib/thumb/v6-m/nofp\libm-emfloat.a(lib_a-_FMA.o)
 .text.__SEGGER_RTL_float64_cmplx
                0x00000000       0x14 c:/program files/microchip/xc32/v4.00/bin/bin/../../lib/gcc/pic32c/8.3.1/../../../../pic32c/lib/thumb/v6-m/nofp\libm-emfloat.a(lib_a-_FMA.o)
 .text.__mulsc3
                0x00000000      0x24c c:/program files/microchip/xc32/v4.00/bin/bin/../../lib/gcc/pic32c/8.3.1/../../../../pic32c/lib/thumb/v6-m/nofp\libm-emfloat.a(lib_a-_FMA.o)
 .text.__divdc3
                0x00000000       0x40 c:/program files/microchip/xc32/v4.00/bin/bin/../../lib/gcc/pic32c/8.3.1/../../../../pic32c/lib/thumb/v6-m/nofp\libm-emfloat.a(lib_a-_FMA.o)
 .text.__SEGGER_RTL_float32_isnan
                0x00000000       0x10 c:/program files/microchip/xc32/v4.00/bin/bin/../../lib/gcc/pic32c/8.3.1/../../../../pic32c/lib/thumb/v6-m/nofp\libm-emfloat.a(lib_a-_FMA.o)
 .text.__SEGGER_RTL_float32_isinf
                0x00000000       0x10 c:/program files/microchip/xc32/v4.00/bin/bin/../../lib/gcc/pic32c/8.3.1/../../../../pic32c/lib/thumb/v6-m/nofp\libm-emfloat.a(lib_a-_FMA.o)
 .text.__SEGGER_RTL_float32_isfinite
                0x00000000       0x10 c:/program files/microchip/xc32/v4.00/bin/bin/../../lib/gcc/pic32c/8.3.1/../../../../pic32c/lib/thumb/v6-m/nofp\libm-emfloat.a(lib_a-_FMA.o)
 .text.__SEGGER_RTL_float32_isnormal
                0x00000000       0x18 c:/program files/microchip/xc32/v4.00/bin/bin/../../lib/gcc/pic32c/8.3.1/../../../../pic32c/lib/thumb/v6-m/nofp\libm-emfloat.a(lib_a-_FMA.o)
 .text.__SEGGER_RTL_float32_signbit
                0x00000000        0x4 c:/program files/microchip/xc32/v4.00/bin/bin/../../lib/gcc/pic32c/8.3.1/../../../../pic32c/lib/thumb/v6-m/nofp\libm-emfloat.a(lib_a-_FMA.o)
 .text.__SEGGER_RTL_float32_classify
                0x00000000       0x2c c:/program files/microchip/xc32/v4.00/bin/bin/../../lib/gcc/pic32c/8.3.1/../../../../pic32c/lib/thumb/v6-m/nofp\libm-emfloat.a(lib_a-_FMA.o)
 .text.__SEGGER_RTL_float64_isnan
                0x00000000       0x10 c:/program files/microchip/xc32/v4.00/bin/bin/../../lib/gcc/pic32c/8.3.1/../../../../pic32c/lib/thumb/v6-m/nofp\libm-emfloat.a(lib_a-_FMA.o)
 .text.__SEGGER_RTL_float64_isinf
                0x00000000       0x10 c:/program files/microchip/xc32/v4.00/bin/bin/../../lib/gcc/pic32c/8.3.1/../../../../pic32c/lib/thumb/v6-m/nofp\libm-emfloat.a(lib_a-_FMA.o)
 .text.__SEGGER_RTL_float64_isfinite
                0x00000000       0x10 c:/program files/microchip/xc32/v4.00/bin/bin/../../lib/gcc/pic32c/8.3.1/../../../../pic32c/lib/thumb/v6-m/nofp\libm-emfloat.a(lib_a-_FMA.o)
 .text.__SEGGER_RTL_float64_isnormal
                0x00000000       0x24 c:/program files/microchip/xc32/v4.00/bin/bin/../../lib/gcc/pic32c/8.3.1/../../../../pic32c/lib/thumb/v6-m/nofp\libm-emfloat.a(lib_a-_FMA.o)
 .text.__SEGGER_RTL_float64_signbit
                0x00000000        0x4 c:/program files/microchip/xc32/v4.00/bin/bin/../../lib/gcc/pic32c/8.3.1/../../../../pic32c/lib/thumb/v6-m/nofp\libm-emfloat.a(lib_a-_FMA.o)
 .text.__SEGGER_RTL_float64_classify
                0x00000000       0x44 c:/program files/microchip/xc32/v4.00/bin/bin/../../lib/gcc/pic32c/8.3.1/../../../../pic32c/lib/thumb/v6-m/nofp\libm-emfloat.a(lib_a-_FMA.o)
 .text.fmal     0x00000000       0x14 c:/program files/microchip/xc32/v4.00/bin/bin/../../lib/gcc/pic32c/8.3.1/../../../../pic32c/lib/thumb/v6-m/nofp\libm-emfloat.a(lib_a-_FMA.o)
 .xc_stack_usage.hdr
                0x00000000        0xe c:/program files/microchip/xc32/v4.00/bin/bin/../../lib/gcc/pic32c/8.3.1/../../../../pic32c/lib/thumb/v6-m/nofp\libm-emfloat.a(lib_a-_FMA.o)
 .data          0x00000000        0x0 c:/program files/microchip/xc32/v4.00/bin/bin/../../lib/gcc/pic32c/8.3.1/thumb/v6-m/nofp\libgcc.a(_udivsi3.o)
 .bss           0x00000000        0x0 c:/program files/microchip/xc32/v4.00/bin/bin/../../lib/gcc/pic32c/8.3.1/thumb/v6-m/nofp\libgcc.a(_udivsi3.o)
 .xc_stack_usage.hdr
                0x00000000        0xe c:/program files/microchip/xc32/v4.00/bin/bin/../../lib/gcc/pic32c/8.3.1/thumb/v6-m/nofp\libgcc.a(_udivsi3.o)
 .xc_stack_usage
                0x00000000       0x35 c:/program files/microchip/xc32/v4.00/bin/bin/../../lib/gcc/pic32c/8.3.1/thumb/v6-m/nofp\libgcc.a(_udivsi3.o)
 .data          0x00000000        0x0 c:/program files/microchip/xc32/v4.00/bin/bin/../../lib/gcc/pic32c/8.3.1/thumb/v6-m/nofp\libgcc.a(_divsi3.o)
 .bss           0x00000000        0x0 c:/program files/microchip/xc32/v4.00/bin/bin/../../lib/gcc/pic32c/8.3.1/thumb/v6-m/nofp\libgcc.a(_divsi3.o)
 .xc_stack_usage.hdr
                0x00000000        0xe c:/program files/microchip/xc32/v4.00/bin/bin/../../lib/gcc/pic32c/8.3.1/thumb/v6-m/nofp\libgcc.a(_divsi3.o)
 .xc_stack_usage
                0x00000000       0x33 c:/program files/microchip/xc32/v4.00/bin/bin/../../lib/gcc/pic32c/8.3.1/thumb/v6-m/nofp\libgcc.a(_divsi3.o)
 .data          0x00000000        0x0 c:/program files/microchip/xc32/v4.00/bin/bin/../../lib/gcc/pic32c/8.3.1/thumb/v6-m/nofp\libgcc.a(_dvmd_tls.o)
 .bss           0x00000000        0x0 c:/program files/microchip/xc32/v4.00/bin/bin/../../lib/gcc/pic32c/8.3.1/thumb/v6-m/nofp\libgcc.a(_dvmd_tls.o)
 .xc_stack_usage.hdr
                0x00000000        0xe c:/program files/microchip/xc32/v4.00/bin/bin/../../lib/gcc/pic32c/8.3.1/thumb/v6-m/nofp\libgcc.a(_dvmd_tls.o)
 .xc_stack_usage
                0x00000000       0x36 c:/program files/microchip/xc32/v4.00/bin/bin/../../lib/gcc/pic32c/8.3.1/thumb/v6-m/nofp\libgcc.a(_dvmd_tls.o)
 .data          0x00000000        0x0 c:/program files/microchip/xc32/v4.00/bin/bin/../../lib/gcc/pic32c/8.3.1/thumb/v6-m/nofp\libgcc.a(_aeabi_uldivmod.o)
 .bss           0x00000000        0x0 c:/program files/microchip/xc32/v4.00/bin/bin/../../lib/gcc/pic32c/8.3.1/thumb/v6-m/nofp\libgcc.a(_aeabi_uldivmod.o)
 .xc_stack_usage.hdr
                0x00000000        0xe c:/program files/microchip/xc32/v4.00/bin/bin/../../lib/gcc/pic32c/8.3.1/thumb/v6-m/nofp\libgcc.a(_aeabi_uldivmod.o)
 .xc_stack_usage
                0x00000000       0x1e c:/program files/microchip/xc32/v4.00/bin/bin/../../lib/gcc/pic32c/8.3.1/thumb/v6-m/nofp\libgcc.a(_aeabi_uldivmod.o)
 .data          0x00000000        0x0 c:/program files/microchip/xc32/v4.00/bin/bin/../../lib/gcc/pic32c/8.3.1/thumb/v6-m/nofp\libgcc.a(_muldi3.o)
 .bss           0x00000000        0x0 c:/program files/microchip/xc32/v4.00/bin/bin/../../lib/gcc/pic32c/8.3.1/thumb/v6-m/nofp\libgcc.a(_muldi3.o)
 .xc_stack_usage
                0x00000000       0x16 c:/program files/microchip/xc32/v4.00/bin/bin/../../lib/gcc/pic32c/8.3.1/thumb/v6-m/nofp\libgcc.a(_muldi3.o)
 .xc_stack_usage.hdr
                0x00000000        0xe c:/program files/microchip/xc32/v4.00/bin/bin/../../lib/gcc/pic32c/8.3.1/thumb/v6-m/nofp\libgcc.a(_muldi3.o)
 .data          0x00000000        0x0 c:/program files/microchip/xc32/v4.00/bin/bin/../../lib/gcc/pic32c/8.3.1/thumb/v6-m/nofp\libgcc.a(_udivmoddi4.o)
 .bss           0x00000000        0x0 c:/program files/microchip/xc32/v4.00/bin/bin/../../lib/gcc/pic32c/8.3.1/thumb/v6-m/nofp\libgcc.a(_udivmoddi4.o)
 .xc_stack_usage
                0x00000000       0x1a c:/program files/microchip/xc32/v4.00/bin/bin/../../lib/gcc/pic32c/8.3.1/thumb/v6-m/nofp\libgcc.a(_udivmoddi4.o)
 .ARM.extab     0x00000000        0x0 c:/program files/microchip/xc32/v4.00/bin/bin/../../lib/gcc/pic32c/8.3.1/thumb/v6-m/nofp\libgcc.a(_udivmoddi4.o)
 .xc_stack_usage.hdr
                0x00000000        0xe c:/program files/microchip/xc32/v4.00/bin/bin/../../lib/gcc/pic32c/8.3.1/thumb/v6-m/nofp\libgcc.a(_udivmoddi4.o)
 .data          0x00000000        0x0 c:/program files/microchip/xc32/v4.00/bin/bin/../../lib/gcc/pic32c/8.3.1/thumb/v6-m/nofp\libgcc.a(_clzdi2.o)
 .bss           0x00000000        0x0 c:/program files/microchip/xc32/v4.00/bin/bin/../../lib/gcc/pic32c/8.3.1/thumb/v6-m/nofp\libgcc.a(_clzdi2.o)
 .xc_stack_usage.hdr
                0x00000000        0xe c:/program files/microchip/xc32/v4.00/bin/bin/../../lib/gcc/pic32c/8.3.1/thumb/v6-m/nofp\libgcc.a(_clzdi2.o)
 .xc_stack_usage
                0x00000000       0x16 c:/program files/microchip/xc32/v4.00/bin/bin/../../lib/gcc/pic32c/8.3.1/thumb/v6-m/nofp\libgcc.a(_clzdi2.o)
 .data          0x00000000        0x0 c:/program files/microchip/xc32/v4.00/bin/bin/../../lib/gcc/pic32c/8.3.1/thumb/v6-m/nofp\libgcc.a(_clzsi2.o)
 .bss           0x00000000        0x0 c:/program files/microchip/xc32/v4.00/bin/bin/../../lib/gcc/pic32c/8.3.1/thumb/v6-m/nofp\libgcc.a(_clzsi2.o)
 .xc_stack_usage.hdr
                0x00000000        0xe c:/program files/microchip/xc32/v4.00/bin/bin/../../lib/gcc/pic32c/8.3.1/thumb/v6-m/nofp\libgcc.a(_clzsi2.o)
 .xc_stack_usage
                0x00000000       0x16 c:/program files/microchip/xc32/v4.00/bin/bin/../../lib/gcc/pic32c/8.3.1/thumb/v6-m/nofp\libgcc.a(_clzsi2.o)
 .text          0x00000000        0x0 c:/program files/microchip/xc32/v4.00/bin/bin/../../lib/gcc/pic32c/8.3.1/thumb/v6-m/nofp/crtend.o
 .data          0x00000000        0x0 c:/program files/microchip/xc32/v4.00/bin/bin/../../lib/gcc/pic32c/8.3.1/thumb/v6-m/nofp/crtend.o
 .bss           0x00000000        0x0 c:/program files/microchip/xc32/v4.00/bin/bin/../../lib/gcc/pic32c/8.3.1/thumb/v6-m/nofp/crtend.o
 .eh_frame      0x00000000        0x4 c:/program files/microchip/xc32/v4.00/bin/bin/../../lib/gcc/pic32c/8.3.1/thumb/v6-m/nofp/crtend.o
 .xc_stack_usage.hdr
                0x00000000        0xe c:/program files/microchip/xc32/v4.00/bin/bin/../../lib/gcc/pic32c/8.3.1/thumb/v6-m/nofp/crtend.o
 .comment       0x00000000       0x54 c:/program files/microchip/xc32/v4.00/bin/bin/../../lib/gcc/pic32c/8.3.1/thumb/v6-m/nofp/crtend.o
 .ARM.attributes
                0x00000000       0x2c c:/program files/microchip/xc32/v4.00/bin/bin/../../lib/gcc/pic32c/8.3.1/thumb/v6-m/nofp/crtend.o
 .text          0x00000000        0x0 c:/program files/microchip/xc32/v4.00/bin/bin/../../lib/gcc/pic32c/8.3.1/thumb/v6-m/nofp/crtn.o
 .data          0x00000000        0x0 c:/program files/microchip/xc32/v4.00/bin/bin/../../lib/gcc/pic32c/8.3.1/thumb/v6-m/nofp/crtn.o
 .bss           0x00000000        0x0 c:/program files/microchip/xc32/v4.00/bin/bin/../../lib/gcc/pic32c/8.3.1/thumb/v6-m/nofp/crtn.o
 .xc_stack_usage.hdr
                0x00000000        0xe c:/program files/microchip/xc32/v4.00/bin/bin/../../lib/gcc/pic32c/8.3.1/thumb/v6-m/nofp/crtn.o

Memory Configuration

Name             Origin             Length             Attributes
rom              0x00000000         0x00040000         xrl
ram              0x20000000         0x00008000         xw !r
config_00804000  0x00804000         0x00000004
config_00804004  0x00804004         0x00000004
*default*        0x00000000         0xffffffff

Linker script and memory map

LOAD c:/program files/microchip/xc32/v4.00/bin/bin/../../lib/gcc/pic32c/8.3.1/thumb/v6-m/nofp/crti.o
LOAD c:/program files/microchip/xc32/v4.00/bin/bin/../../lib/gcc/pic32c/8.3.1/thumb/v6-m/nofp/crtbegin.o
LOAD build/Trinket_USB_2/production/_ext/2108104030/drv_usbfsv1.o
LOAD build/Trinket_USB_2/production/_ext/2108104030/drv_usbfsv1_device.o
LOAD build/Trinket_USB_2/production/_ext/140414528/plib_adc.o
LOAD build/Trinket_USB_2/production/_ext/1796475310/plib_clock.o
LOAD build/Trinket_USB_2/production/_ext/1798624796/plib_evsys.o
LOAD build/Trinket_USB_2/production/_ext/58287938/plib_nvic.o
LOAD build/Trinket_USB_2/production/_ext/1292982576/plib_nvmctrl.o
LOAD build/Trinket_USB_2/production/_ext/58341089/plib_port.o
LOAD build/Trinket_USB_2/production/_ext/499838197/plib_sercom0_i2c_master.o
LOAD build/Trinket_USB_2/production/_ext/1390003407/plib_tc3.o
LOAD build/Trinket_USB_2/production/_ext/1578018698/xc32_monitor.o
LOAD build/Trinket_USB_2/production/_ext/1961919639/sys_int.o
LOAD build/Trinket_USB_2/production/_ext/1909065425/sys_time.o
LOAD build/Trinket_USB_2/production/_ext/1390297478/usb_device.o
LOAD build/Trinket_USB_2/production/_ext/1390297478/usb_device_cdc.o
LOAD build/Trinket_USB_2/production/_ext/1390297478/usb_device_cdc_acm.o
LOAD build/Trinket_USB_2/production/_ext/1189347772/initialization.o
LOAD build/Trinket_USB_2/production/_ext/1189347772/interrupts.o
LOAD build/Trinket_USB_2/production/_ext/1189347772/exceptions.o
LOAD build/Trinket_USB_2/production/_ext/1189347772/startup_xc32.o
LOAD build/Trinket_USB_2/production/_ext/1189347772/libc_syscalls.o
LOAD build/Trinket_USB_2/production/_ext/1189347772/usb_device_init_data.o
LOAD build/Trinket_USB_2/production/_ext/1189347772/tasks.o
LOAD build/Trinket_USB_2/production/_ext/1360937237/main.o
LOAD build/Trinket_USB_2/production/_ext/1360937237/app_usb.o
LOAD build/Trinket_USB_2/production/_ext/1360937237/i2c.o
LOAD build/Trinket_USB_2/production/_ext/1360937237/ms8607.o
                0x00000001                __MPLAB_BUILD = 0x1
                0x00040000                __rom_end = (ORIGIN (rom) + LENGTH (rom))
                0x20008000                __ram_end = (ORIGIN (ram) + LENGTH (ram))

.config_00804000
 *(.config_00804000)

.config_00804004
 *(.config_00804004)

.vectors        0x00000000       0xb0
                0x00000000                . = ALIGN (0x4)
                0x00000000                _sfixed = .
 *(.vectors .vectors.* .vectors_default .vectors_default.*)
 .vectors.exception_table
                0x00000000       0xb0 build/Trinket_USB_2/production/_ext/1189347772/interrupts.o
                0x00000000                exception_table
 *(.isr_vector)
 *(.reset*)
 *(.after_vectors)

.text           0x000000b0       0x20
                0x000000b0                . = ALIGN (0x4)
 *(.glue_7t)
 .glue_7t       0x000000b0        0x0 linker stubs
 *(.glue_7)
 .glue_7        0x000000b0        0x0 linker stubs
 *(.gnu.linkonce.r.*)
 *(.ARM.extab* .gnu.linkonce.armextab.*)
                0x000000b0                . = ALIGN (0x4)
 *(.init)
 .init          0x000000b0        0x4 c:/program files/microchip/xc32/v4.00/bin/bin/../../lib/gcc/pic32c/8.3.1/thumb/v6-m/nofp/crti.o
                0x000000b0                _init
 .init          0x000000b4        0x8 c:/program files/microchip/xc32/v4.00/bin/bin/../../lib/gcc/pic32c/8.3.1/thumb/v6-m/nofp/crtn.o
                0x000000bc                . = ALIGN (0x4)
                0x000000bc                __preinit_array_start = .
 *(.preinit_array)
                0x000000bc                __preinit_array_end = .
                0x000000bc                . = ALIGN (0x4)
                0x000000bc                __init_array_start = .
 *(SORT_BY_NAME(.init_array.*))
 *(.init_array)
 .init_array    0x000000bc        0x4 c:/program files/microchip/xc32/v4.00/bin/bin/../../lib/gcc/pic32c/8.3.1/thumb/v6-m/nofp/crtbegin.o
                0x000000c0                __init_array_end = .
                0x000000c0                . = ALIGN (0x4)
 *crtbegin.o(.ctors)
 *(EXCLUDE_FILE(*crtend.o) .ctors)
 *(SORT_BY_NAME(.ctors.*))
 *crtend.o(.ctors)
                0x000000c0                . = ALIGN (0x4)
 *(.fini)
 .fini          0x000000c0        0x4 c:/program files/microchip/xc32/v4.00/bin/bin/../../lib/gcc/pic32c/8.3.1/thumb/v6-m/nofp/crti.o
                0x000000c0                _fini
 .fini          0x000000c4        0x8 c:/program files/microchip/xc32/v4.00/bin/bin/../../lib/gcc/pic32c/8.3.1/thumb/v6-m/nofp/crtn.o
                0x000000cc                . = ALIGN (0x4)
                0x000000cc                __fini_array_start = .
 *(.fini_array)
 .fini_array    0x000000cc        0x4 c:/program files/microchip/xc32/v4.00/bin/bin/../../lib/gcc/pic32c/8.3.1/thumb/v6-m/nofp/crtbegin.o
 *(SORT_BY_NAME(.fini_array.*))
                0x000000d0                __fini_array_end = .
 *crtbegin.o(.dtors)
 *(EXCLUDE_FILE(*crtend.o) .dtors)
 *(SORT_BY_NAME(.dtors.*))
 *crtend.o(.dtors)
                0x000000d0                . = ALIGN (0x4)
                0x000000d0                _efixed = .
                [!provide]                PROVIDE (__exidx_start = .)

.ARM.exidx      0x000000d0        0x8
 *(.ARM.exidx* .gnu.linkonce.armexidx.*)
 .ARM.exidx     0x000000d0        0x8 c:/program files/microchip/xc32/v4.00/bin/bin/../../lib/gcc/pic32c/8.3.1/thumb/v6-m/nofp\libgcc.a(_udivmoddi4.o)
                [!provide]                PROVIDE (__exidx_end = .)
                0x000000d8                . = ALIGN (0x4)
                0x000000d8                _etext = .

.bss            0x20000000        0x0
                0x20000000                . = ALIGN (0x4)
                0x20000000                __bss_start__ = .
                0x20000000                _sbss = .
                0x20000000                _szero = .
 *(COMMON)
                0x20000000                . = ALIGN (0x4)
                0x20000000                __bss_end__ = .
                0x20000000                _ebss = .
                0x20000000                _ezero = .
                0x20000000                . = ALIGN (0x4)
                0x20000000                _end = .
                0x20007fff                _ram_end_ = ((ORIGIN (ram) + LENGTH (ram)) - 0x1)
                0x00000200                _min_heap_size = 0x200
START GROUP
LOAD c:/program files/microchip/xc32/v4.00/bin/bin/../../lib/gcc/pic32c/8.3.1/../../../../pic32c/lib/thumb/v6-m/nofp\libpic32c.a
LOAD c:/program files/microchip/xc32/v4.00/bin/bin/../../lib/gcc/pic32c/8.3.1/../../../../pic32c/lib/thumb/v6-m/nofp\libm-emfloat.a
LOAD c:/program files/microchip/xc32/v4.00/bin/bin/../../lib/gcc/pic32c/8.3.1/../../../../pic32c/lib/thumb/v6-m/nofp\libc-musl.a
LOAD c:/program files/microchip/xc32/v4.00/bin/bin/../../lib/gcc/pic32c/8.3.1/../../../../pic32c/lib/thumb/v6-m/nofp\libm-emfloat.a
LOAD c:/program files/microchip/xc32/v4.00/bin/bin/../../lib/gcc/pic32c/8.3.1/thumb/v6-m/nofp\libgcc.a
END GROUP
LOAD c:/program files/microchip/xc32/v4.00/bin/bin/../../lib/gcc/pic32c/8.3.1/thumb/v6-m/nofp/crtend.o
LOAD c:/program files/microchip/xc32/v4.00/bin/bin/../../lib/gcc/pic32c/8.3.1/thumb/v6-m/nofp/crtn.o
OUTPUT(dist/Trinket_USB_2/production/USB_Weather_Module.X.production.elf elf32-littlearm)
LOAD stack
LOAD data_init

.ARM.attributes
                0x00000000       0x2a
 .ARM.attributes
                0x00000000       0x1e c:/program files/microchip/xc32/v4.00/bin/bin/../../lib/gcc/pic32c/8.3.1/thumb/v6-m/nofp/crti.o
 .ARM.attributes
                0x0000001e       0x2c c:/program files/microchip/xc32/v4.00/bin/bin/../../lib/gcc/pic32c/8.3.1/thumb/v6-m/nofp/crtbegin.o
 .ARM.attributes
                0x0000004a       0x2c build/Trinket_USB_2/production/_ext/2108104030/drv_usbfsv1.o
 .ARM.attributes
                0x00000076       0x2c build/Trinket_USB_2/production/_ext/2108104030/drv_usbfsv1_device.o
 .ARM.attributes
                0x000000a2       0x2c build/Trinket_USB_2/production/_ext/140414528/plib_adc.o
 .ARM.attributes
                0x000000ce       0x2c build/Trinket_USB_2/production/_ext/1796475310/plib_clock.o
 .ARM.attributes
                0x000000fa       0x2c build/Trinket_USB_2/production/_ext/1798624796/plib_evsys.o
 .ARM.attributes
                0x00000126       0x2c build/Trinket_USB_2/production/_ext/58287938/plib_nvic.o
 .ARM.attributes
                0x00000152       0x2c build/Trinket_USB_2/production/_ext/1292982576/plib_nvmctrl.o
 .ARM.attributes
                0x0000017e       0x2c build/Trinket_USB_2/production/_ext/58341089/plib_port.o
 .ARM.attributes
                0x000001aa       0x2c build/Trinket_USB_2/production/_ext/499838197/plib_sercom0_i2c_master.o
 .ARM.attributes
                0x000001d6       0x2c build/Trinket_USB_2/production/_ext/1390003407/plib_tc3.o
 .ARM.attributes
                0x00000202       0x2c build/Trinket_USB_2/production/_ext/1961919639/sys_int.o
 .ARM.attributes
                0x0000022e       0x2c build/Trinket_USB_2/production/_ext/1909065425/sys_time.o
 .ARM.attributes
                0x0000025a       0x2c build/Trinket_USB_2/production/_ext/1390297478/usb_device.o
 .ARM.attributes
                0x00000286       0x2c build/Trinket_USB_2/production/_ext/1390297478/usb_device_cdc.o
 .ARM.attributes
                0x000002b2       0x2c build/Trinket_USB_2/production/_ext/1390297478/usb_device_cdc_acm.o
 .ARM.attributes
                0x000002de       0x2c build/Trinket_USB_2/production/_ext/1189347772/initialization.o
 .ARM.attributes
                0x0000030a       0x2c build/Trinket_USB_2/production/_ext/1189347772/interrupts.o
 .ARM.attributes
                0x00000336       0x2c build/Trinket_USB_2/production/_ext/1189347772/exceptions.o
 .ARM.attributes
                0x00000362       0x2c build/Trinket_USB_2/production/_ext/1189347772/startup_xc32.o
 .ARM.attributes
                0x0000038e       0x32 build/Trinket_USB_2/production/_ext/1189347772/usb_device_init_data.o
 .ARM.attributes
                0x000003c0       0x2c build/Trinket_USB_2/production/_ext/1189347772/tasks.o
 .ARM.attributes
                0x000003ec       0x2c build/Trinket_USB_2/production/_ext/1360937237/main.o
 .ARM.attributes
                0x00000418       0x2c build/Trinket_USB_2/production/_ext/1360937237/app_usb.o
 .ARM.attributes
                0x00000444       0x2c build/Trinket_USB_2/production/_ext/1360937237/i2c.o
 .ARM.attributes
                0x00000470       0x2c build/Trinket_USB_2/production/_ext/1360937237/ms8607.o
 .ARM.attributes
                0x0000049c       0x2c c:/program files/microchip/xc32/v4.00/bin/bin/../../lib/gcc/pic32c/8.3.1/../../../../pic32c/lib/thumb/v6-m/nofp\libpic32c.a(data_init.o)
 .ARM.attributes
                0x000004c8       0x1c c:/program files/microchip/xc32/v4.00/bin/bin/../../lib/gcc/pic32c/8.3.1/../../../../pic32c/lib/thumb/v6-m/nofp\libm-emfloat.a(floatasmops_arm.o)
 .ARM.attributes
                0x000004e4       0x2e c:/program files/microchip/xc32/v4.00/bin/bin/../../lib/gcc/pic32c/8.3.1/../../../../pic32c/lib/thumb/v6-m/nofp\libc-musl.a(__libc_start_main.o)
 .ARM.attributes
                0x00000512       0x2e c:/program files/microchip/xc32/v4.00/bin/bin/../../lib/gcc/pic32c/8.3.1/../../../../pic32c/lib/thumb/v6-m/nofp\libc-musl.a(__errno_location.o)
 .ARM.attributes
                0x00000540       0x2e c:/program files/microchip/xc32/v4.00/bin/bin/../../lib/gcc/pic32c/8.3.1/../../../../pic32c/lib/thumb/v6-m/nofp\libc-musl.a(libc.o)
 .ARM.attributes
                0x0000056e       0x2e c:/program files/microchip/xc32/v4.00/bin/bin/../../lib/gcc/pic32c/8.3.1/../../../../pic32c/lib/thumb/v6-m/nofp\libc-musl.a(__sio_sprintf_fs.o)
 .ARM.attributes
                0x0000059c       0x2e c:/program files/microchip/xc32/v4.00/bin/bin/../../lib/gcc/pic32c/8.3.1/../../../../pic32c/lib/thumb/v6-m/nofp\libc-musl.a(__fmt_fp.o)
 .ARM.attributes
                0x000005ca       0x2e c:/program files/microchip/xc32/v4.00/bin/bin/../../lib/gcc/pic32c/8.3.1/../../../../pic32c/lib/thumb/v6-m/nofp\libc-musl.a(__fmt_s.o)
 .ARM.attributes
                0x000005f8       0x2e c:/program files/microchip/xc32/v4.00/bin/bin/../../lib/gcc/pic32c/8.3.1/../../../../pic32c/lib/thumb/v6-m/nofp\libc-musl.a(__printf_core.o)
 .ARM.attributes
                0x00000626       0x2e c:/program files/microchip/xc32/v4.00/bin/bin/../../lib/gcc/pic32c/8.3.1/../../../../pic32c/lib/thumb/v6-m/nofp\libc-musl.a(atoi.o)
 .ARM.attributes
                0x00000654       0x2e c:/program files/microchip/xc32/v4.00/bin/bin/../../lib/gcc/pic32c/8.3.1/../../../../pic32c/lib/thumb/v6-m/nofp\libc-musl.a(memcpy.o)
 .ARM.attributes
                0x00000682       0x2e c:/program files/microchip/xc32/v4.00/bin/bin/../../lib/gcc/pic32c/8.3.1/../../../../pic32c/lib/thumb/v6-m/nofp\libc-musl.a(memset.o)
 .ARM.attributes
                0x000006b0       0x2e c:/program files/microchip/xc32/v4.00/bin/bin/../../lib/gcc/pic32c/8.3.1/../../../../pic32c/lib/thumb/v6-m/nofp\libc-musl.a(strlen.o)
 .ARM.attributes
                0x000006de       0x2e c:/program files/microchip/xc32/v4.00/bin/bin/../../lib/gcc/pic32c/8.3.1/../../../../pic32c/lib/thumb/v6-m/nofp\libc-musl.a(strcpy.o)
 .ARM.attributes
                0x0000070c       0x2e c:/program files/microchip/xc32/v4.00/bin/bin/../../lib/gcc/pic32c/8.3.1/../../../../pic32c/lib/thumb/v6-m/nofp\libc-musl.a(tolower.o)
 .ARM.attributes
                0x0000073a       0x2e c:/program files/microchip/xc32/v4.00/bin/bin/../../lib/gcc/pic32c/8.3.1/../../../../pic32c/lib/thumb/v6-m/nofp\libc-musl.a(__environ.o)
 .ARM.attributes
                0x00000768       0x2e c:/program files/microchip/xc32/v4.00/bin/bin/../../lib/gcc/pic32c/8.3.1/../../../../pic32c/lib/thumb/v6-m/nofp\libc-musl.a(__int_vsprintf.o)
 .ARM.attributes
                0x00000796       0x2e c:/program files/microchip/xc32/v4.00/bin/bin/../../lib/gcc/pic32c/8.3.1/../../../../pic32c/lib/thumb/v6-m/nofp\libc-musl.a(__pop_float.o)
 .ARM.attributes
                0x000007c4       0x2e c:/program files/microchip/xc32/v4.00/bin/bin/../../lib/gcc/pic32c/8.3.1/../../../../pic32c/lib/thumb/v6-m/nofp\libc-musl.a(__pop_int.o)
 .ARM.attributes
                0x000007f2       0x2e c:/program files/microchip/xc32/v4.00/bin/bin/../../lib/gcc/pic32c/8.3.1/../../../../pic32c/lib/thumb/v6-m/nofp\libc-musl.a(__pop_ptr.o)
 .ARM.attributes
                0x00000820       0x2e c:/program files/microchip/xc32/v4.00/bin/bin/../../lib/gcc/pic32c/8.3.1/../../../../pic32c/lib/thumb/v6-m/nofp\libc-musl.a(stpcpy.o)
 .ARM.attributes
                0x0000084e       0x2e c:/program files/microchip/xc32/v4.00/bin/bin/../../lib/gcc/pic32c/8.3.1/../../../../pic32c/lib/thumb/v6-m/nofp\libc-musl.a(__int_vsnprintf.o)
 .ARM.attributes
                0x0000087c       0x2e c:/program files/microchip/xc32/v4.00/bin/bin/../../lib/gcc/pic32c/8.3.1/../../../../pic32c/lib/thumb/v6-m/nofp\libc-musl.a(__int_vfprintf.o)
 .ARM.attributes
                0x000008aa       0x2c c:/program files/microchip/xc32/v4.00/bin/bin/../../lib/gcc/pic32c/8.3.1/../../../../pic32c/lib/thumb/v6-m/nofp\libm-emfloat.a(lib_a-_FLOOR.o)
 .ARM.attributes
                0x000008d6       0x2c c:/program files/microchip/xc32/v4.00/bin/bin/../../lib/gcc/pic32c/8.3.1/../../../../pic32c/lib/thumb/v6-m/nofp\libm-emfloat.a(lib_a-_FMA.o)
 .ARM.attributes
                0x00000902       0x1e c:/program files/microchip/xc32/v4.00/bin/bin/../../lib/gcc/pic32c/8.3.1/thumb/v6-m/nofp\libgcc.a(_udivsi3.o)
 .ARM.attributes
                0x00000920       0x1e c:/program files/microchip/xc32/v4.00/bin/bin/../../lib/gcc/pic32c/8.3.1/thumb/v6-m/nofp\libgcc.a(_divsi3.o)
 .ARM.attributes
                0x0000093e       0x1e c:/program files/microchip/xc32/v4.00/bin/bin/../../lib/gcc/pic32c/8.3.1/thumb/v6-m/nofp\libgcc.a(_dvmd_tls.o)
 .ARM.attributes
                0x0000095c       0x1e c:/program files/microchip/xc32/v4.00/bin/bin/../../lib/gcc/pic32c/8.3.1/thumb/v6-m/nofp\libgcc.a(_aeabi_uldivmod.o)
 .ARM.attributes
                0x0000097a       0x2c c:/program files/microchip/xc32/v4.00/bin/bin/../../lib/gcc/pic32c/8.3.1/thumb/v6-m/nofp\libgcc.a(_muldi3.o)
 .ARM.attributes
                0x000009a6       0x2c c:/program files/microchip/xc32/v4.00/bin/bin/../../lib/gcc/pic32c/8.3.1/thumb/v6-m/nofp\libgcc.a(_udivmoddi4.o)
 .ARM.attributes
                0x000009d2       0x1e c:/program files/microchip/xc32/v4.00/bin/bin/../../lib/gcc/pic32c/8.3.1/thumb/v6-m/nofp\libgcc.a(_clzdi2.o)
 .ARM.attributes
                0x000009f0       0x1e c:/program files/microchip/xc32/v4.00/bin/bin/../../lib/gcc/pic32c/8.3.1/thumb/v6-m/nofp\libgcc.a(_clzsi2.o)
 .ARM.attributes
                0x00000a0e       0x1e c:/program files/microchip/xc32/v4.00/bin/bin/../../lib/gcc/pic32c/8.3.1/thumb/v6-m/nofp/crtn.o

.comment        0x00000000       0x53
 .comment       0x00000000       0x53 c:/program files/microchip/xc32/v4.00/bin/bin/../../lib/gcc/pic32c/8.3.1/thumb/v6-m/nofp/crtbegin.o
                                 0x54 (size before relaxing)
 .comment       0x00000053       0x54 build/Trinket_USB_2/production/_ext/2108104030/drv_usbfsv1.o
 .comment       0x00000053       0x54 build/Trinket_USB_2/production/_ext/2108104030/drv_usbfsv1_device.o
 .comment       0x00000053       0x54 build/Trinket_USB_2/production/_ext/140414528/plib_adc.o
 .comment       0x00000053       0x54 build/Trinket_USB_2/production/_ext/1796475310/plib_clock.o
 .comment       0x00000053       0x54 build/Trinket_USB_2/production/_ext/1798624796/plib_evsys.o
 .comment       0x00000053       0x54 build/Trinket_USB_2/production/_ext/58287938/plib_nvic.o
 .comment       0x00000053       0x54 build/Trinket_USB_2/production/_ext/1292982576/plib_nvmctrl.o
 .comment       0x00000053       0x54 build/Trinket_USB_2/production/_ext/58341089/plib_port.o
 .comment       0x00000053       0x54 build/Trinket_USB_2/production/_ext/499838197/plib_sercom0_i2c_master.o
 .comment       0x00000053       0x54 build/Trinket_USB_2/production/_ext/1390003407/plib_tc3.o
 .comment       0x00000053       0x54 build/Trinket_USB_2/production/_ext/1961919639/sys_int.o
 .comment       0x00000053       0x54 build/Trinket_USB_2/production/_ext/1909065425/sys_time.o
 .comment       0x00000053       0x54 build/Trinket_USB_2/production/_ext/1390297478/usb_device.o
 .comment       0x00000053       0x54 build/Trinket_USB_2/production/_ext/1390297478/usb_device_cdc.o
 .comment       0x00000053       0x54 build/Trinket_USB_2/production/_ext/1390297478/usb_device_cdc_acm.o
 .comment       0x00000053       0x54 build/Trinket_USB_2/production/_ext/1189347772/initialization.o
 .comment       0x00000053       0x54 build/Trinket_USB_2/production/_ext/1189347772/interrupts.o
 .comment       0x00000053       0x54 build/Trinket_USB_2/production/_ext/1189347772/exceptions.o
 .comment       0x00000053       0x54 build/Trinket_USB_2/production/_ext/1189347772/startup_xc32.o
 .comment       0x00000053       0x54 build/Trinket_USB_2/production/_ext/1189347772/usb_device_init_data.o
 .comment       0x00000053       0x54 build/Trinket_USB_2/production/_ext/1189347772/tasks.o
 .comment       0x00000053       0x54 build/Trinket_USB_2/production/_ext/1360937237/main.o
 .comment       0x00000053       0x54 build/Trinket_USB_2/production/_ext/1360937237/app_usb.o
 .comment       0x00000053       0x54 build/Trinket_USB_2/production/_ext/1360937237/i2c.o
 .comment       0x00000053       0x54 build/Trinket_USB_2/production/_ext/1360937237/ms8607.o
 .comment       0x00000053       0x54 c:/program files/microchip/xc32/v4.00/bin/bin/../../lib/gcc/pic32c/8.3.1/../../../../pic32c/lib/thumb/v6-m/nofp\libpic32c.a(data_init.o)
 .comment       0x00000053       0x54 c:/program files/microchip/xc32/v4.00/bin/bin/../../lib/gcc/pic32c/8.3.1/../../../../pic32c/lib/thumb/v6-m/nofp\libc-musl.a(__libc_start_main.o)
 .comment       0x00000053       0x54 c:/program files/microchip/xc32/v4.00/bin/bin/../../lib/gcc/pic32c/8.3.1/../../../../pic32c/lib/thumb/v6-m/nofp\libc-musl.a(__errno_location.o)
 .comment       0x00000053       0x54 c:/program files/microchip/xc32/v4.00/bin/bin/../../lib/gcc/pic32c/8.3.1/../../../../pic32c/lib/thumb/v6-m/nofp\libc-musl.a(libc.o)
 .comment       0x00000053       0x54 c:/program files/microchip/xc32/v4.00/bin/bin/../../lib/gcc/pic32c/8.3.1/../../../../pic32c/lib/thumb/v6-m/nofp\libc-musl.a(__sio_sprintf_fs.o)
 .comment       0x00000053       0x54 c:/program files/microchip/xc32/v4.00/bin/bin/../../lib/gcc/pic32c/8.3.1/../../../../pic32c/lib/thumb/v6-m/nofp\libc-musl.a(__fmt_fp.o)
 .comment       0x00000053       0x54 c:/program files/microchip/xc32/v4.00/bin/bin/../../lib/gcc/pic32c/8.3.1/../../../../pic32c/lib/thumb/v6-m/nofp\libc-musl.a(__fmt_s.o)
 .comment       0x00000053       0x54 c:/program files/microchip/xc32/v4.00/bin/bin/../../lib/gcc/pic32c/8.3.1/../../../../pic32c/lib/thumb/v6-m/nofp\libc-musl.a(__printf_core.o)
 .comment       0x00000053       0x54 c:/program files/microchip/xc32/v4.00/bin/bin/../../lib/gcc/pic32c/8.3.1/../../../../pic32c/lib/thumb/v6-m/nofp\libc-musl.a(atoi.o)
 .comment       0x00000053       0x54 c:/program files/microchip/xc32/v4.00/bin/bin/../../lib/gcc/pic32c/8.3.1/../../../../pic32c/lib/thumb/v6-m/nofp\libc-musl.a(memcpy.o)
 .comment       0x00000053       0x54 c:/program files/microchip/xc32/v4.00/bin/bin/../../lib/gcc/pic32c/8.3.1/../../../../pic32c/lib/thumb/v6-m/nofp\libc-musl.a(memset.o)
 .comment       0x00000053       0x54 c:/program files/microchip/xc32/v4.00/bin/bin/../../lib/gcc/pic32c/8.3.1/../../../../pic32c/lib/thumb/v6-m/nofp\libc-musl.a(strlen.o)
 .comment       0x00000053       0x54 c:/program files/microchip/xc32/v4.00/bin/bin/../../lib/gcc/pic32c/8.3.1/../../../../pic32c/lib/thumb/v6-m/nofp\libc-musl.a(strcpy.o)
 .comment       0x00000053       0x54 c:/program files/microchip/xc32/v4.00/bin/bin/../../lib/gcc/pic32c/8.3.1/../../../../pic32c/lib/thumb/v6-m/nofp\libc-musl.a(tolower.o)
 .comment       0x00000053       0x54 c:/program files/microchip/xc32/v4.00/bin/bin/../../lib/gcc/pic32c/8.3.1/../../../../pic32c/lib/thumb/v6-m/nofp\libc-musl.a(__environ.o)
 .comment       0x00000053       0x54 c:/program files/microchip/xc32/v4.00/bin/bin/../../lib/gcc/pic32c/8.3.1/../../../../pic32c/lib/thumb/v6-m/nofp\libc-musl.a(__int_vsprintf.o)
 .comment       0x00000053       0x54 c:/program files/microchip/xc32/v4.00/bin/bin/../../lib/gcc/pic32c/8.3.1/../../../../pic32c/lib/thumb/v6-m/nofp\libc-musl.a(__pop_float.o)
 .comment       0x00000053       0x54 c:/program files/microchip/xc32/v4.00/bin/bin/../../lib/gcc/pic32c/8.3.1/../../../../pic32c/lib/thumb/v6-m/nofp\libc-musl.a(__pop_int.o)
 .comment       0x00000053       0x54 c:/program files/microchip/xc32/v4.00/bin/bin/../../lib/gcc/pic32c/8.3.1/../../../../pic32c/lib/thumb/v6-m/nofp\libc-musl.a(__pop_ptr.o)
 .comment       0x00000053       0x54 c:/program files/microchip/xc32/v4.00/bin/bin/../../lib/gcc/pic32c/8.3.1/../../../../pic32c/lib/thumb/v6-m/nofp\libc-musl.a(stpcpy.o)
 .comment       0x00000053       0x54 c:/program files/microchip/xc32/v4.00/bin/bin/../../lib/gcc/pic32c/8.3.1/../../../../pic32c/lib/thumb/v6-m/nofp\libc-musl.a(__int_vsnprintf.o)
 .comment       0x00000053       0x54 c:/program files/microchip/xc32/v4.00/bin/bin/../../lib/gcc/pic32c/8.3.1/../../../../pic32c/lib/thumb/v6-m/nofp\libc-musl.a(__int_vfprintf.o)
 .comment       0x00000053       0x54 c:/program files/microchip/xc32/v4.00/bin/bin/../../lib/gcc/pic32c/8.3.1/../../../../pic32c/lib/thumb/v6-m/nofp\libm-emfloat.a(lib_a-_FLOOR.o)
 .comment       0x00000053       0x54 c:/program files/microchip/xc32/v4.00/bin/bin/../../lib/gcc/pic32c/8.3.1/../../../../pic32c/lib/thumb/v6-m/nofp\libm-emfloat.a(lib_a-_FMA.o)
 .comment       0x00000053       0x54 c:/program files/microchip/xc32/v4.00/bin/bin/../../lib/gcc/pic32c/8.3.1/thumb/v6-m/nofp\libgcc.a(_muldi3.o)
 .comment       0x00000053       0x54 c:/program files/microchip/xc32/v4.00/bin/bin/../../lib/gcc/pic32c/8.3.1/thumb/v6-m/nofp\libgcc.a(_udivmoddi4.o)

.debug_info     0x00000000    0x4737e
 .debug_info    0x00000000     0x56b7 build/Trinket_USB_2/production/_ext/2108104030/drv_usbfsv1.o
 .debug_info    0x000056b7     0x6712 build/Trinket_USB_2/production/_ext/2108104030/drv_usbfsv1_device.o
 .debug_info    0x0000bdc9      0xdf5 build/Trinket_USB_2/production/_ext/140414528/plib_adc.o
 .debug_info    0x0000cbbe      0xa6b build/Trinket_USB_2/production/_ext/1796475310/plib_clock.o
 .debug_info    0x0000d629      0x351 build/Trinket_USB_2/production/_ext/1798624796/plib_evsys.o
 .debug_info    0x0000d97a      0xac2 build/Trinket_USB_2/production/_ext/58287938/plib_nvic.o
 .debug_info    0x0000e43c      0x8e2 build/Trinket_USB_2/production/_ext/1292982576/plib_nvmctrl.o
 .debug_info    0x0000ed1e      0xbf3 build/Trinket_USB_2/production/_ext/58341089/plib_port.o
 .debug_info    0x0000f911     0x181e build/Trinket_USB_2/production/_ext/499838197/plib_sercom0_i2c_master.o
 .debug_info    0x0001112f      0xc7f build/Trinket_USB_2/production/_ext/1390003407/plib_tc3.o
 .debug_info    0x00011dae      0x9ab build/Trinket_USB_2/production/_ext/1961919639/sys_int.o
 .debug_info    0x00012759     0x2a98 build/Trinket_USB_2/production/_ext/1909065425/sys_time.o
 .debug_info    0x000151f1     0x5df7 build/Trinket_USB_2/production/_ext/1390297478/usb_device.o
 .debug_info    0x0001afe8     0x3e8b build/Trinket_USB_2/production/_ext/1390297478/usb_device_cdc.o
 .debug_info    0x0001ee73     0x1956 build/Trinket_USB_2/production/_ext/1390297478/usb_device_cdc_acm.o
 .debug_info    0x000207c9     0x4136 build/Trinket_USB_2/production/_ext/1189347772/initialization.o
 .debug_info    0x000248ff     0x3473 build/Trinket_USB_2/production/_ext/1189347772/interrupts.o
 .debug_info    0x00027d72     0x2efc build/Trinket_USB_2/production/_ext/1189347772/exceptions.o
 .debug_info    0x0002ac6e      0x4e5 build/Trinket_USB_2/production/_ext/1189347772/startup_xc32.o
 .debug_info    0x0002b153     0x3976 build/Trinket_USB_2/production/_ext/1189347772/usb_device_init_data.o
 .debug_info    0x0002eac9     0x2f12 build/Trinket_USB_2/production/_ext/1189347772/tasks.o
 .debug_info    0x000319db     0x2eeb build/Trinket_USB_2/production/_ext/1360937237/main.o
 .debug_info    0x000348c6     0x42cc build/Trinket_USB_2/production/_ext/1360937237/app_usb.o
 .debug_info    0x00038b92      0x56a build/Trinket_USB_2/production/_ext/1360937237/i2c.o
 .debug_info    0x000390fc     0x1c9d build/Trinket_USB_2/production/_ext/1360937237/ms8607.o
 .debug_info    0x0003ad99      0x2d1 c:/program files/microchip/xc32/v4.00/bin/bin/../../lib/gcc/pic32c/8.3.1/../../../../pic32c/lib/thumb/v6-m/nofp\libpic32c.a(data_init.o)
 .debug_info    0x0003b06a      0x6a9 c:/program files/microchip/xc32/v4.00/bin/bin/../../lib/gcc/pic32c/8.3.1/../../../../pic32c/lib/thumb/v6-m/nofp\libc-musl.a(__libc_start_main.o)
 .debug_info    0x0003b713      0x570 c:/program files/microchip/xc32/v4.00/bin/bin/../../lib/gcc/pic32c/8.3.1/../../../../pic32c/lib/thumb/v6-m/nofp\libc-musl.a(__errno_location.o)
 .debug_info    0x0003bc83      0x5d5 c:/program files/microchip/xc32/v4.00/bin/bin/../../lib/gcc/pic32c/8.3.1/../../../../pic32c/lib/thumb/v6-m/nofp\libc-musl.a(libc.o)
 .debug_info    0x0003c258      0x6fd c:/program files/microchip/xc32/v4.00/bin/bin/../../lib/gcc/pic32c/8.3.1/../../../../pic32c/lib/thumb/v6-m/nofp\libc-musl.a(__sio_sprintf_fs.o)
 .debug_info    0x0003c955      0xc39 c:/program files/microchip/xc32/v4.00/bin/bin/../../lib/gcc/pic32c/8.3.1/../../../../pic32c/lib/thumb/v6-m/nofp\libc-musl.a(__fmt_fp.o)
 .debug_info    0x0003d58e      0x870 c:/program files/microchip/xc32/v4.00/bin/bin/../../lib/gcc/pic32c/8.3.1/../../../../pic32c/lib/thumb/v6-m/nofp\libc-musl.a(__fmt_s.o)
 .debug_info    0x0003ddfe     0x101f c:/program files/microchip/xc32/v4.00/bin/bin/../../lib/gcc/pic32c/8.3.1/../../../../pic32c/lib/thumb/v6-m/nofp\libc-musl.a(__printf_core.o)
 .debug_info    0x0003ee1d      0x318 c:/program files/microchip/xc32/v4.00/bin/bin/../../lib/gcc/pic32c/8.3.1/../../../../pic32c/lib/thumb/v6-m/nofp\libc-musl.a(atoi.o)
 .debug_info    0x0003f135      0x30e c:/program files/microchip/xc32/v4.00/bin/bin/../../lib/gcc/pic32c/8.3.1/../../../../pic32c/lib/thumb/v6-m/nofp\libc-musl.a(memcpy.o)
 .debug_info    0x0003f443      0x2d2 c:/program files/microchip/xc32/v4.00/bin/bin/../../lib/gcc/pic32c/8.3.1/../../../../pic32c/lib/thumb/v6-m/nofp\libc-musl.a(memset.o)
 .debug_info    0x0003f715      0x2c3 c:/program files/microchip/xc32/v4.00/bin/bin/../../lib/gcc/pic32c/8.3.1/../../../../pic32c/lib/thumb/v6-m/nofp\libc-musl.a(strlen.o)
 .debug_info    0x0003f9d8      0x2d1 c:/program files/microchip/xc32/v4.00/bin/bin/../../lib/gcc/pic32c/8.3.1/../../../../pic32c/lib/thumb/v6-m/nofp\libc-musl.a(strcpy.o)
 .debug_info    0x0003fca9      0x5f9 c:/program files/microchip/xc32/v4.00/bin/bin/../../lib/gcc/pic32c/8.3.1/../../../../pic32c/lib/thumb/v6-m/nofp\libc-musl.a(tolower.o)
 .debug_info    0x000402a2      0x58c c:/program files/microchip/xc32/v4.00/bin/bin/../../lib/gcc/pic32c/8.3.1/../../../../pic32c/lib/thumb/v6-m/nofp\libc-musl.a(__environ.o)
 .debug_info    0x0004082e      0x699 c:/program files/microchip/xc32/v4.00/bin/bin/../../lib/gcc/pic32c/8.3.1/../../../../pic32c/lib/thumb/v6-m/nofp\libc-musl.a(__int_vsprintf.o)
 .debug_info    0x00040ec7      0x756 c:/program files/microchip/xc32/v4.00/bin/bin/../../lib/gcc/pic32c/8.3.1/../../../../pic32c/lib/thumb/v6-m/nofp\libc-musl.a(__pop_float.o)
 .debug_info    0x0004161d      0x77a c:/program files/microchip/xc32/v4.00/bin/bin/../../lib/gcc/pic32c/8.3.1/../../../../pic32c/lib/thumb/v6-m/nofp\libc-musl.a(__pop_int.o)
 .debug_info    0x00041d97      0x777 c:/program files/microchip/xc32/v4.00/bin/bin/../../lib/gcc/pic32c/8.3.1/../../../../pic32c/lib/thumb/v6-m/nofp\libc-musl.a(__pop_ptr.o)
 .debug_info    0x0004250e      0x5af c:/program files/microchip/xc32/v4.00/bin/bin/../../lib/gcc/pic32c/8.3.1/../../../../pic32c/lib/thumb/v6-m/nofp\libc-musl.a(stpcpy.o)
 .debug_info    0x00042abd      0x773 c:/program files/microchip/xc32/v4.00/bin/bin/../../lib/gcc/pic32c/8.3.1/../../../../pic32c/lib/thumb/v6-m/nofp\libc-musl.a(__int_vsnprintf.o)
 .debug_info    0x00043230      0x777 c:/program files/microchip/xc32/v4.00/bin/bin/../../lib/gcc/pic32c/8.3.1/../../../../pic32c/lib/thumb/v6-m/nofp\libc-musl.a(__int_vfprintf.o)
 .debug_info    0x000439a7       0x26 c:/program files/microchip/xc32/v4.00/bin/bin/../../lib/gcc/pic32c/8.3.1/thumb/v6-m/nofp\libgcc.a(_udivsi3.o)
 .debug_info    0x000439cd       0x26 c:/program files/microchip/xc32/v4.00/bin/bin/../../lib/gcc/pic32c/8.3.1/thumb/v6-m/nofp\libgcc.a(_divsi3.o)
 .debug_info    0x000439f3       0x26 c:/program files/microchip/xc32/v4.00/bin/bin/../../lib/gcc/pic32c/8.3.1/thumb/v6-m/nofp\libgcc.a(_dvmd_tls.o)
 .debug_info    0x00043a19       0x26 c:/program files/microchip/xc32/v4.00/bin/bin/../../lib/gcc/pic32c/8.3.1/thumb/v6-m/nofp\libgcc.a(_aeabi_uldivmod.o)
 .debug_info    0x00043a3f     0x1cd3 c:/program files/microchip/xc32/v4.00/bin/bin/../../lib/gcc/pic32c/8.3.1/thumb/v6-m/nofp\libgcc.a(_muldi3.o)
 .debug_info    0x00045712     0x1c20 c:/program files/microchip/xc32/v4.00/bin/bin/../../lib/gcc/pic32c/8.3.1/thumb/v6-m/nofp\libgcc.a(_udivmoddi4.o)
 .debug_info    0x00047332       0x26 c:/program files/microchip/xc32/v4.00/bin/bin/../../lib/gcc/pic32c/8.3.1/thumb/v6-m/nofp\libgcc.a(_clzdi2.o)
 .debug_info    0x00047358       0x26 c:/program files/microchip/xc32/v4.00/bin/bin/../../lib/gcc/pic32c/8.3.1/thumb/v6-m/nofp\libgcc.a(_clzsi2.o)

.debug_abbrev   0x00000000     0x5fa8
 .debug_abbrev  0x00000000      0x4e5 build/Trinket_USB_2/production/_ext/2108104030/drv_usbfsv1.o
 .debug_abbrev  0x000004e5      0x5ed build/Trinket_USB_2/production/_ext/2108104030/drv_usbfsv1_device.o
 .debug_abbrev  0x00000ad2      0x1c0 build/Trinket_USB_2/production/_ext/140414528/plib_adc.o
 .debug_abbrev  0x00000c92      0x13e build/Trinket_USB_2/production/_ext/1796475310/plib_clock.o
 .debug_abbrev  0x00000dd0       0x3b build/Trinket_USB_2/production/_ext/1798624796/plib_evsys.o
 .debug_abbrev  0x00000e0b      0x1e1 build/Trinket_USB_2/production/_ext/58287938/plib_nvic.o
 .debug_abbrev  0x00000fec      0x1b1 build/Trinket_USB_2/production/_ext/1292982576/plib_nvmctrl.o
 .debug_abbrev  0x0000119d      0x1d6 build/Trinket_USB_2/production/_ext/58341089/plib_port.o
 .debug_abbrev  0x00001373      0x3bd build/Trinket_USB_2/production/_ext/499838197/plib_sercom0_i2c_master.o
 .debug_abbrev  0x00001730      0x1e8 build/Trinket_USB_2/production/_ext/1390003407/plib_tc3.o
 .debug_abbrev  0x00001918      0x246 build/Trinket_USB_2/production/_ext/1961919639/sys_int.o
 .debug_abbrev  0x00001b5e      0x5da build/Trinket_USB_2/production/_ext/1909065425/sys_time.o
 .debug_abbrev  0x00002138      0x4e6 build/Trinket_USB_2/production/_ext/1390297478/usb_device.o
 .debug_abbrev  0x0000261e      0x505 build/Trinket_USB_2/production/_ext/1390297478/usb_device_cdc.o
 .debug_abbrev  0x00002b23      0x205 build/Trinket_USB_2/production/_ext/1390297478/usb_device_cdc_acm.o
 .debug_abbrev  0x00002d28      0x2df build/Trinket_USB_2/production/_ext/1189347772/initialization.o
 .debug_abbrev  0x00003007      0x21d build/Trinket_USB_2/production/_ext/1189347772/interrupts.o
 .debug_abbrev  0x00003224      0x1ff build/Trinket_USB_2/production/_ext/1189347772/exceptions.o
 .debug_abbrev  0x00003423      0x110 build/Trinket_USB_2/production/_ext/1189347772/startup_xc32.o
 .debug_abbrev  0x00003533      0x248 build/Trinket_USB_2/production/_ext/1189347772/usb_device_init_data.o
 .debug_abbrev  0x0000377b      0x21d build/Trinket_USB_2/production/_ext/1189347772/tasks.o
 .debug_abbrev  0x00003998      0x238 build/Trinket_USB_2/production/_ext/1360937237/main.o
 .debug_abbrev  0x00003bd0      0x3ef build/Trinket_USB_2/production/_ext/1360937237/app_usb.o
 .debug_abbrev  0x00003fbf       0xfb build/Trinket_USB_2/production/_ext/1360937237/i2c.o
 .debug_abbrev  0x000040ba      0x433 build/Trinket_USB_2/production/_ext/1360937237/ms8607.o
 .debug_abbrev  0x000044ed       0x2e c:/program files/microchip/xc32/v4.00/bin/bin/../../lib/gcc/pic32c/8.3.1/../../../../pic32c/lib/thumb/v6-m/nofp\libpic32c.a(data_init.o)
 .debug_abbrev  0x0000451b      0x126 c:/program files/microchip/xc32/v4.00/bin/bin/../../lib/gcc/pic32c/8.3.1/../../../../pic32c/lib/thumb/v6-m/nofp\libc-musl.a(__libc_start_main.o)
 .debug_abbrev  0x00004641       0xba c:/program files/microchip/xc32/v4.00/bin/bin/../../lib/gcc/pic32c/8.3.1/../../../../pic32c/lib/thumb/v6-m/nofp\libc-musl.a(__errno_location.o)
 .debug_abbrev  0x000046fb       0xc7 c:/program files/microchip/xc32/v4.00/bin/bin/../../lib/gcc/pic32c/8.3.1/../../../../pic32c/lib/thumb/v6-m/nofp\libc-musl.a(libc.o)
 .debug_abbrev  0x000047c2      0x186 c:/program files/microchip/xc32/v4.00/bin/bin/../../lib/gcc/pic32c/8.3.1/../../../../pic32c/lib/thumb/v6-m/nofp\libc-musl.a(__sio_sprintf_fs.o)
 .debug_abbrev  0x00004948      0x1f1 c:/program files/microchip/xc32/v4.00/bin/bin/../../lib/gcc/pic32c/8.3.1/../../../../pic32c/lib/thumb/v6-m/nofp\libc-musl.a(__fmt_fp.o)
 .debug_abbrev  0x00004b39      0x161 c:/program files/microchip/xc32/v4.00/bin/bin/../../lib/gcc/pic32c/8.3.1/../../../../pic32c/lib/thumb/v6-m/nofp\libc-musl.a(__fmt_s.o)
 .debug_abbrev  0x00004c9a      0x2e1 c:/program files/microchip/xc32/v4.00/bin/bin/../../lib/gcc/pic32c/8.3.1/../../../../pic32c/lib/thumb/v6-m/nofp\libc-musl.a(__printf_core.o)
 .debug_abbrev  0x00004f7b       0xbb c:/program files/microchip/xc32/v4.00/bin/bin/../../lib/gcc/pic32c/8.3.1/../../../../pic32c/lib/thumb/v6-m/nofp\libc-musl.a(atoi.o)
 .debug_abbrev  0x00005036       0x9c c:/program files/microchip/xc32/v4.00/bin/bin/../../lib/gcc/pic32c/8.3.1/../../../../pic32c/lib/thumb/v6-m/nofp\libc-musl.a(memcpy.o)
 .debug_abbrev  0x000050d2       0x97 c:/program files/microchip/xc32/v4.00/bin/bin/../../lib/gcc/pic32c/8.3.1/../../../../pic32c/lib/thumb/v6-m/nofp\libc-musl.a(memset.o)
 .debug_abbrev  0x00005169       0x86 c:/program files/microchip/xc32/v4.00/bin/bin/../../lib/gcc/pic32c/8.3.1/../../../../pic32c/lib/thumb/v6-m/nofp\libc-musl.a(strlen.o)
 .debug_abbrev  0x000051ef       0x8e c:/program files/microchip/xc32/v4.00/bin/bin/../../lib/gcc/pic32c/8.3.1/../../../../pic32c/lib/thumb/v6-m/nofp\libc-musl.a(strcpy.o)
 .debug_abbrev  0x0000527d      0x112 c:/program files/microchip/xc32/v4.00/bin/bin/../../lib/gcc/pic32c/8.3.1/../../../../pic32c/lib/thumb/v6-m/nofp\libc-musl.a(tolower.o)
 .debug_abbrev  0x0000538f       0xc7 c:/program files/microchip/xc32/v4.00/bin/bin/../../lib/gcc/pic32c/8.3.1/../../../../pic32c/lib/thumb/v6-m/nofp\libc-musl.a(__environ.o)
 .debug_abbrev  0x00005456      0x126 c:/program files/microchip/xc32/v4.00/bin/bin/../../lib/gcc/pic32c/8.3.1/../../../../pic32c/lib/thumb/v6-m/nofp\libc-musl.a(__int_vsprintf.o)
 .debug_abbrev  0x0000557c      0x11b c:/program files/microchip/xc32/v4.00/bin/bin/../../lib/gcc/pic32c/8.3.1/../../../../pic32c/lib/thumb/v6-m/nofp\libc-musl.a(__pop_float.o)
 .debug_abbrev  0x00005697      0x11b c:/program files/microchip/xc32/v4.00/bin/bin/../../lib/gcc/pic32c/8.3.1/../../../../pic32c/lib/thumb/v6-m/nofp\libc-musl.a(__pop_int.o)
 .debug_abbrev  0x000057b2      0x11b c:/program files/microchip/xc32/v4.00/bin/bin/../../lib/gcc/pic32c/8.3.1/../../../../pic32c/lib/thumb/v6-m/nofp\libc-musl.a(__pop_ptr.o)
 .debug_abbrev  0x000058cd       0xdf c:/program files/microchip/xc32/v4.00/bin/bin/../../lib/gcc/pic32c/8.3.1/../../../../pic32c/lib/thumb/v6-m/nofp\libc-musl.a(stpcpy.o)
 .debug_abbrev  0x000059ac      0x137 c:/program files/microchip/xc32/v4.00/bin/bin/../../lib/gcc/pic32c/8.3.1/../../../../pic32c/lib/thumb/v6-m/nofp\libc-musl.a(__int_vsnprintf.o)
 .debug_abbrev  0x00005ae3      0x15e c:/program files/microchip/xc32/v4.00/bin/bin/../../lib/gcc/pic32c/8.3.1/../../../../pic32c/lib/thumb/v6-m/nofp\libc-musl.a(__int_vfprintf.o)
 .debug_abbrev  0x00005c41       0x14 c:/program files/microchip/xc32/v4.00/bin/bin/../../lib/gcc/pic32c/8.3.1/thumb/v6-m/nofp\libgcc.a(_udivsi3.o)
 .debug_abbrev  0x00005c55       0x14 c:/program files/microchip/xc32/v4.00/bin/bin/../../lib/gcc/pic32c/8.3.1/thumb/v6-m/nofp\libgcc.a(_divsi3.o)
 .debug_abbrev  0x00005c69       0x14 c:/program files/microchip/xc32/v4.00/bin/bin/../../lib/gcc/pic32c/8.3.1/thumb/v6-m/nofp\libgcc.a(_dvmd_tls.o)
 .debug_abbrev  0x00005c7d       0x14 c:/program files/microchip/xc32/v4.00/bin/bin/../../lib/gcc/pic32c/8.3.1/thumb/v6-m/nofp\libgcc.a(_aeabi_uldivmod.o)
 .debug_abbrev  0x00005c91      0x198 c:/program files/microchip/xc32/v4.00/bin/bin/../../lib/gcc/pic32c/8.3.1/thumb/v6-m/nofp\libgcc.a(_muldi3.o)
 .debug_abbrev  0x00005e29      0x157 c:/program files/microchip/xc32/v4.00/bin/bin/../../lib/gcc/pic32c/8.3.1/thumb/v6-m/nofp\libgcc.a(_udivmoddi4.o)
 .debug_abbrev  0x00005f80       0x14 c:/program files/microchip/xc32/v4.00/bin/bin/../../lib/gcc/pic32c/8.3.1/thumb/v6-m/nofp\libgcc.a(_clzdi2.o)
 .debug_abbrev  0x00005f94       0x14 c:/program files/microchip/xc32/v4.00/bin/bin/../../lib/gcc/pic32c/8.3.1/thumb/v6-m/nofp\libgcc.a(_clzsi2.o)

.debug_loc      0x00000000     0xf915
 .debug_loc     0x00000000      0x7f5 build/Trinket_USB_2/production/_ext/2108104030/drv_usbfsv1.o
 .debug_loc     0x000007f5     0x2c1d build/Trinket_USB_2/production/_ext/2108104030/drv_usbfsv1_device.o
 .debug_loc     0x00003412      0x1a9 build/Trinket_USB_2/production/_ext/140414528/plib_adc.o
 .debug_loc     0x000035bb       0x8e build/Trinket_USB_2/production/_ext/1796475310/plib_clock.o
 .debug_loc     0x00003649       0xf4 build/Trinket_USB_2/production/_ext/58287938/plib_nvic.o
 .debug_loc     0x0000373d      0x2f9 build/Trinket_USB_2/production/_ext/1292982576/plib_nvmctrl.o
 .debug_loc     0x00003a36      0x226 build/Trinket_USB_2/production/_ext/58341089/plib_port.o
 .debug_loc     0x00003c5c      0xad6 build/Trinket_USB_2/production/_ext/499838197/plib_sercom0_i2c_master.o
 .debug_loc     0x00004732       0x5f build/Trinket_USB_2/production/_ext/1390003407/plib_tc3.o
 .debug_loc     0x00004791      0x17d build/Trinket_USB_2/production/_ext/1961919639/sys_int.o
 .debug_loc     0x0000490e     0x25c7 build/Trinket_USB_2/production/_ext/1909065425/sys_time.o
 .debug_loc     0x00006ed5     0x2fc0 build/Trinket_USB_2/production/_ext/1390297478/usb_device.o
 .debug_loc     0x00009e95     0x17ca build/Trinket_USB_2/production/_ext/1390297478/usb_device_cdc.o
 .debug_loc     0x0000b65f      0x260 build/Trinket_USB_2/production/_ext/1390297478/usb_device_cdc_acm.o
 .debug_loc     0x0000b8bf       0x45 build/Trinket_USB_2/production/_ext/1189347772/initialization.o
 .debug_loc     0x0000b904       0x20 build/Trinket_USB_2/production/_ext/1189347772/startup_xc32.o
 .debug_loc     0x0000b924       0x20 build/Trinket_USB_2/production/_ext/1189347772/tasks.o
 .debug_loc     0x0000b944       0x20 build/Trinket_USB_2/production/_ext/1360937237/main.o
 .debug_loc     0x0000b964      0x530 build/Trinket_USB_2/production/_ext/1360937237/app_usb.o
 .debug_loc     0x0000be94       0xcf build/Trinket_USB_2/production/_ext/1360937237/i2c.o
 .debug_loc     0x0000bf63     0x1255 build/Trinket_USB_2/production/_ext/1360937237/ms8607.o
 .debug_loc     0x0000d1b8       0x14 c:/program files/microchip/xc32/v4.00/bin/bin/../../lib/gcc/pic32c/8.3.1/../../../../pic32c/lib/thumb/v6-m/nofp\libpic32c.a(data_init.o)
 .debug_loc     0x0000d1cc       0x5e c:/program files/microchip/xc32/v4.00/bin/bin/../../lib/gcc/pic32c/8.3.1/../../../../pic32c/lib/thumb/v6-m/nofp\libc-musl.a(__libc_start_main.o)
 .debug_loc     0x0000d22a       0x86 c:/program files/microchip/xc32/v4.00/bin/bin/../../lib/gcc/pic32c/8.3.1/../../../../pic32c/lib/thumb/v6-m/nofp\libc-musl.a(__sio_sprintf_fs.o)
 .debug_loc     0x0000d2b0      0xcd2 c:/program files/microchip/xc32/v4.00/bin/bin/../../lib/gcc/pic32c/8.3.1/../../../../pic32c/lib/thumb/v6-m/nofp\libc-musl.a(__fmt_fp.o)
 .debug_loc     0x0000df82      0x144 c:/program files/microchip/xc32/v4.00/bin/bin/../../lib/gcc/pic32c/8.3.1/../../../../pic32c/lib/thumb/v6-m/nofp\libc-musl.a(__fmt_s.o)
 .debug_loc     0x0000e0c6      0x6c7 c:/program files/microchip/xc32/v4.00/bin/bin/../../lib/gcc/pic32c/8.3.1/../../../../pic32c/lib/thumb/v6-m/nofp\libc-musl.a(__printf_core.o)
 .debug_loc     0x0000e78d       0xdc c:/program files/microchip/xc32/v4.00/bin/bin/../../lib/gcc/pic32c/8.3.1/../../../../pic32c/lib/thumb/v6-m/nofp\libc-musl.a(atoi.o)
 .debug_loc     0x0000e869      0x109 c:/program files/microchip/xc32/v4.00/bin/bin/../../lib/gcc/pic32c/8.3.1/../../../../pic32c/lib/thumb/v6-m/nofp\libc-musl.a(memcpy.o)
 .debug_loc     0x0000e972       0x80 c:/program files/microchip/xc32/v4.00/bin/bin/../../lib/gcc/pic32c/8.3.1/../../../../pic32c/lib/thumb/v6-m/nofp\libc-musl.a(memset.o)
 .debug_loc     0x0000e9f2       0x54 c:/program files/microchip/xc32/v4.00/bin/bin/../../lib/gcc/pic32c/8.3.1/../../../../pic32c/lib/thumb/v6-m/nofp\libc-musl.a(strlen.o)
 .debug_loc     0x0000ea46       0x74 c:/program files/microchip/xc32/v4.00/bin/bin/../../lib/gcc/pic32c/8.3.1/../../../../pic32c/lib/thumb/v6-m/nofp\libc-musl.a(strcpy.o)
 .debug_loc     0x0000eaba       0x8f c:/program files/microchip/xc32/v4.00/bin/bin/../../lib/gcc/pic32c/8.3.1/../../../../pic32c/lib/thumb/v6-m/nofp\libc-musl.a(tolower.o)
 .debug_loc     0x0000eb49       0x8c c:/program files/microchip/xc32/v4.00/bin/bin/../../lib/gcc/pic32c/8.3.1/../../../../pic32c/lib/thumb/v6-m/nofp\libc-musl.a(__int_vsprintf.o)
 .debug_loc     0x0000ebd5       0x6f c:/program files/microchip/xc32/v4.00/bin/bin/../../lib/gcc/pic32c/8.3.1/../../../../pic32c/lib/thumb/v6-m/nofp\libc-musl.a(__pop_float.o)
 .debug_loc     0x0000ec44      0x281 c:/program files/microchip/xc32/v4.00/bin/bin/../../lib/gcc/pic32c/8.3.1/../../../../pic32c/lib/thumb/v6-m/nofp\libc-musl.a(__pop_int.o)
 .debug_loc     0x0000eec5      0x1fe c:/program files/microchip/xc32/v4.00/bin/bin/../../lib/gcc/pic32c/8.3.1/../../../../pic32c/lib/thumb/v6-m/nofp\libc-musl.a(__pop_ptr.o)
 .debug_loc     0x0000f0c3       0x90 c:/program files/microchip/xc32/v4.00/bin/bin/../../lib/gcc/pic32c/8.3.1/../../../../pic32c/lib/thumb/v6-m/nofp\libc-musl.a(stpcpy.o)
 .debug_loc     0x0000f153      0x102 c:/program files/microchip/xc32/v4.00/bin/bin/../../lib/gcc/pic32c/8.3.1/../../../../pic32c/lib/thumb/v6-m/nofp\libc-musl.a(__int_vsnprintf.o)
 .debug_loc     0x0000f255       0xb0 c:/program files/microchip/xc32/v4.00/bin/bin/../../lib/gcc/pic32c/8.3.1/../../../../pic32c/lib/thumb/v6-m/nofp\libc-musl.a(__int_vfprintf.o)
 .debug_loc     0x0000f305      0x1f4 c:/program files/microchip/xc32/v4.00/bin/bin/../../lib/gcc/pic32c/8.3.1/thumb/v6-m/nofp\libgcc.a(_muldi3.o)
 .debug_loc     0x0000f4f9      0x41c c:/program files/microchip/xc32/v4.00/bin/bin/../../lib/gcc/pic32c/8.3.1/thumb/v6-m/nofp\libgcc.a(_udivmoddi4.o)

.debug_aranges  0x00000000      0xdb0
 .debug_aranges
                0x00000000       0x80 build/Trinket_USB_2/production/_ext/2108104030/drv_usbfsv1.o
 .debug_aranges
                0x00000080       0xb8 build/Trinket_USB_2/production/_ext/2108104030/drv_usbfsv1_device.o
 .debug_aranges
                0x00000138       0x78 build/Trinket_USB_2/production/_ext/140414528/plib_adc.o
 .debug_aranges
                0x000001b0       0x20 build/Trinket_USB_2/production/_ext/1796475310/plib_clock.o
 .debug_aranges
                0x000001d0       0x20 build/Trinket_USB_2/production/_ext/1798624796/plib_evsys.o
 .debug_aranges
                0x000001f0       0x38 build/Trinket_USB_2/production/_ext/58287938/plib_nvic.o
 .debug_aranges
                0x00000228       0x70 build/Trinket_USB_2/production/_ext/1292982576/plib_nvmctrl.o
 .debug_aranges
                0x00000298       0x70 build/Trinket_USB_2/production/_ext/58341089/plib_port.o
 .debug_aranges
                0x00000308       0x68 build/Trinket_USB_2/production/_ext/499838197/plib_sercom0_i2c_master.o
 .debug_aranges
                0x00000370       0x78 build/Trinket_USB_2/production/_ext/1390003407/plib_tc3.o
 .debug_aranges
                0x000003e8       0x40 build/Trinket_USB_2/production/_ext/1961919639/sys_int.o
 .debug_aranges
                0x00000428      0x130 build/Trinket_USB_2/production/_ext/1909065425/sys_time.o
 .debug_aranges
                0x00000558      0x1a0 build/Trinket_USB_2/production/_ext/1390297478/usb_device.o
 .debug_aranges
                0x000006f8       0x88 build/Trinket_USB_2/production/_ext/1390297478/usb_device_cdc.o
 .debug_aranges
                0x00000780       0x20 build/Trinket_USB_2/production/_ext/1390297478/usb_device_cdc_acm.o
 .debug_aranges
                0x000007a0       0x20 build/Trinket_USB_2/production/_ext/1189347772/initialization.o
 .debug_aranges
                0x000007c0       0x20 build/Trinket_USB_2/production/_ext/1189347772/interrupts.o
 .debug_aranges
                0x000007e0       0x28 build/Trinket_USB_2/production/_ext/1189347772/exceptions.o
 .debug_aranges
                0x00000808       0x28 build/Trinket_USB_2/production/_ext/1189347772/startup_xc32.o
 .debug_aranges
                0x00000830       0x18 build/Trinket_USB_2/production/_ext/1189347772/usb_device_init_data.o
 .debug_aranges
                0x00000848       0x20 build/Trinket_USB_2/production/_ext/1189347772/tasks.o
 .debug_aranges
                0x00000868       0x20 build/Trinket_USB_2/production/_ext/1360937237/main.o
 .debug_aranges
                0x00000888       0x50 build/Trinket_USB_2/production/_ext/1360937237/app_usb.o
 .debug_aranges
                0x000008d8       0x30 build/Trinket_USB_2/production/_ext/1360937237/i2c.o
 .debug_aranges
                0x00000908       0xb8 build/Trinket_USB_2/production/_ext/1360937237/ms8607.o
 .debug_aranges
                0x000009c0       0x20 c:/program files/microchip/xc32/v4.00/bin/bin/../../lib/gcc/pic32c/8.3.1/../../../../pic32c/lib/thumb/v6-m/nofp\libpic32c.a(data_init.o)
 .debug_aranges
                0x000009e0       0x28 c:/program files/microchip/xc32/v4.00/bin/bin/../../lib/gcc/pic32c/8.3.1/../../../../pic32c/lib/thumb/v6-m/nofp\libc-musl.a(__libc_start_main.o)
 .debug_aranges
                0x00000a08       0x18 c:/program files/microchip/xc32/v4.00/bin/bin/../../lib/gcc/pic32c/8.3.1/../../../../pic32c/lib/thumb/v6-m/nofp\libc-musl.a(__errno_location.o)
 .debug_aranges
                0x00000a20       0x18 c:/program files/microchip/xc32/v4.00/bin/bin/../../lib/gcc/pic32c/8.3.1/../../../../pic32c/lib/thumb/v6-m/nofp\libc-musl.a(libc.o)
 .debug_aranges
                0x00000a38       0x28 c:/program files/microchip/xc32/v4.00/bin/bin/../../lib/gcc/pic32c/8.3.1/../../../../pic32c/lib/thumb/v6-m/nofp\libc-musl.a(__sio_sprintf_fs.o)
 .debug_aranges
                0x00000a60       0x20 c:/program files/microchip/xc32/v4.00/bin/bin/../../lib/gcc/pic32c/8.3.1/../../../../pic32c/lib/thumb/v6-m/nofp\libc-musl.a(__fmt_fp.o)
 .debug_aranges
                0x00000a80       0x20 c:/program files/microchip/xc32/v4.00/bin/bin/../../lib/gcc/pic32c/8.3.1/../../../../pic32c/lib/thumb/v6-m/nofp\libc-musl.a(__fmt_s.o)
 .debug_aranges
                0x00000aa0       0x50 c:/program files/microchip/xc32/v4.00/bin/bin/../../lib/gcc/pic32c/8.3.1/../../../../pic32c/lib/thumb/v6-m/nofp\libc-musl.a(__printf_core.o)
 .debug_aranges
                0x00000af0       0x20 c:/program files/microchip/xc32/v4.00/bin/bin/../../lib/gcc/pic32c/8.3.1/../../../../pic32c/lib/thumb/v6-m/nofp\libc-musl.a(atoi.o)
 .debug_aranges
                0x00000b10       0x20 c:/program files/microchip/xc32/v4.00/bin/bin/../../lib/gcc/pic32c/8.3.1/../../../../pic32c/lib/thumb/v6-m/nofp\libc-musl.a(memcpy.o)
 .debug_aranges
                0x00000b30       0x20 c:/program files/microchip/xc32/v4.00/bin/bin/../../lib/gcc/pic32c/8.3.1/../../../../pic32c/lib/thumb/v6-m/nofp\libc-musl.a(memset.o)
 .debug_aranges
                0x00000b50       0x20 c:/program files/microchip/xc32/v4.00/bin/bin/../../lib/gcc/pic32c/8.3.1/../../../../pic32c/lib/thumb/v6-m/nofp\libc-musl.a(strlen.o)
 .debug_aranges
                0x00000b70       0x20 c:/program files/microchip/xc32/v4.00/bin/bin/../../lib/gcc/pic32c/8.3.1/../../../../pic32c/lib/thumb/v6-m/nofp\libc-musl.a(strcpy.o)
 .debug_aranges
                0x00000b90       0x28 c:/program files/microchip/xc32/v4.00/bin/bin/../../lib/gcc/pic32c/8.3.1/../../../../pic32c/lib/thumb/v6-m/nofp\libc-musl.a(tolower.o)
 .debug_aranges
                0x00000bb8       0x18 c:/program files/microchip/xc32/v4.00/bin/bin/../../lib/gcc/pic32c/8.3.1/../../../../pic32c/lib/thumb/v6-m/nofp\libc-musl.a(__environ.o)
 .debug_aranges
                0x00000bd0       0x20 c:/program files/microchip/xc32/v4.00/bin/bin/../../lib/gcc/pic32c/8.3.1/../../../../pic32c/lib/thumb/v6-m/nofp\libc-musl.a(__int_vsprintf.o)
 .debug_aranges
                0x00000bf0       0x20 c:/program files/microchip/xc32/v4.00/bin/bin/../../lib/gcc/pic32c/8.3.1/../../../../pic32c/lib/thumb/v6-m/nofp\libc-musl.a(__pop_float.o)
 .debug_aranges
                0x00000c10       0x20 c:/program files/microchip/xc32/v4.00/bin/bin/../../lib/gcc/pic32c/8.3.1/../../../../pic32c/lib/thumb/v6-m/nofp\libc-musl.a(__pop_int.o)
 .debug_aranges
                0x00000c30       0x20 c:/program files/microchip/xc32/v4.00/bin/bin/../../lib/gcc/pic32c/8.3.1/../../../../pic32c/lib/thumb/v6-m/nofp\libc-musl.a(__pop_ptr.o)
 .debug_aranges
                0x00000c50       0x20 c:/program files/microchip/xc32/v4.00/bin/bin/../../lib/gcc/pic32c/8.3.1/../../../../pic32c/lib/thumb/v6-m/nofp\libc-musl.a(stpcpy.o)
 .debug_aranges
                0x00000c70       0x20 c:/program files/microchip/xc32/v4.00/bin/bin/../../lib/gcc/pic32c/8.3.1/../../../../pic32c/lib/thumb/v6-m/nofp\libc-musl.a(__int_vsnprintf.o)
 .debug_aranges
                0x00000c90       0x20 c:/program files/microchip/xc32/v4.00/bin/bin/../../lib/gcc/pic32c/8.3.1/../../../../pic32c/lib/thumb/v6-m/nofp\libc-musl.a(__int_vfprintf.o)
 .debug_aranges
                0x00000cb0       0x20 c:/program files/microchip/xc32/v4.00/bin/bin/../../lib/gcc/pic32c/8.3.1/thumb/v6-m/nofp\libgcc.a(_udivsi3.o)
 .debug_aranges
                0x00000cd0       0x20 c:/program files/microchip/xc32/v4.00/bin/bin/../../lib/gcc/pic32c/8.3.1/thumb/v6-m/nofp\libgcc.a(_divsi3.o)
 .debug_aranges
                0x00000cf0       0x20 c:/program files/microchip/xc32/v4.00/bin/bin/../../lib/gcc/pic32c/8.3.1/thumb/v6-m/nofp\libgcc.a(_dvmd_tls.o)
 .debug_aranges
                0x00000d10       0x20 c:/program files/microchip/xc32/v4.00/bin/bin/../../lib/gcc/pic32c/8.3.1/thumb/v6-m/nofp\libgcc.a(_aeabi_uldivmod.o)
 .debug_aranges
                0x00000d30       0x20 c:/program files/microchip/xc32/v4.00/bin/bin/../../lib/gcc/pic32c/8.3.1/thumb/v6-m/nofp\libgcc.a(_muldi3.o)
 .debug_aranges
                0x00000d50       0x20 c:/program files/microchip/xc32/v4.00/bin/bin/../../lib/gcc/pic32c/8.3.1/thumb/v6-m/nofp\libgcc.a(_udivmoddi4.o)
 .debug_aranges
                0x00000d70       0x20 c:/program files/microchip/xc32/v4.00/bin/bin/../../lib/gcc/pic32c/8.3.1/thumb/v6-m/nofp\libgcc.a(_clzdi2.o)
 .debug_aranges
                0x00000d90       0x20 c:/program files/microchip/xc32/v4.00/bin/bin/../../lib/gcc/pic32c/8.3.1/thumb/v6-m/nofp\libgcc.a(_clzsi2.o)

.debug_ranges   0x00000000      0xcb8
 .debug_ranges  0x00000000       0x70 build/Trinket_USB_2/production/_ext/2108104030/drv_usbfsv1.o
 .debug_ranges  0x00000070      0x168 build/Trinket_USB_2/production/_ext/2108104030/drv_usbfsv1_device.o
 .debug_ranges  0x000001d8       0x68 build/Trinket_USB_2/production/_ext/140414528/plib_adc.o
 .debug_ranges  0x00000240       0x28 build/Trinket_USB_2/production/_ext/1796475310/plib_clock.o
 .debug_ranges  0x00000268       0x10 build/Trinket_USB_2/production/_ext/1798624796/plib_evsys.o
 .debug_ranges  0x00000278       0x28 build/Trinket_USB_2/production/_ext/58287938/plib_nvic.o
 .debug_ranges  0x000002a0       0x60 build/Trinket_USB_2/production/_ext/1292982576/plib_nvmctrl.o
 .debug_ranges  0x00000300       0x60 build/Trinket_USB_2/production/_ext/58341089/plib_port.o
 .debug_ranges  0x00000360       0xd8 build/Trinket_USB_2/production/_ext/499838197/plib_sercom0_i2c_master.o
 .debug_ranges  0x00000438       0x68 build/Trinket_USB_2/production/_ext/1390003407/plib_tc3.o
 .debug_ranges  0x000004a0       0x48 build/Trinket_USB_2/production/_ext/1961919639/sys_int.o
 .debug_ranges  0x000004e8      0x1a8 build/Trinket_USB_2/production/_ext/1909065425/sys_time.o
 .debug_ranges  0x00000690      0x190 build/Trinket_USB_2/production/_ext/1390297478/usb_device.o
 .debug_ranges  0x00000820       0xc0 build/Trinket_USB_2/production/_ext/1390297478/usb_device_cdc.o
 .debug_ranges  0x000008e0       0x10 build/Trinket_USB_2/production/_ext/1390297478/usb_device_cdc_acm.o
 .debug_ranges  0x000008f0       0x10 build/Trinket_USB_2/production/_ext/1189347772/initialization.o
 .debug_ranges  0x00000900       0x10 build/Trinket_USB_2/production/_ext/1189347772/interrupts.o
 .debug_ranges  0x00000910       0x18 build/Trinket_USB_2/production/_ext/1189347772/exceptions.o
 .debug_ranges  0x00000928       0x18 build/Trinket_USB_2/production/_ext/1189347772/startup_xc32.o
 .debug_ranges  0x00000940       0x10 build/Trinket_USB_2/production/_ext/1189347772/tasks.o
 .debug_ranges  0x00000950       0x10 build/Trinket_USB_2/production/_ext/1360937237/main.o
 .debug_ranges  0x00000960       0x40 build/Trinket_USB_2/production/_ext/1360937237/app_usb.o
 .debug_ranges  0x000009a0       0x20 build/Trinket_USB_2/production/_ext/1360937237/i2c.o
 .debug_ranges  0x000009c0      0x120 build/Trinket_USB_2/production/_ext/1360937237/ms8607.o
 .debug_ranges  0x00000ae0       0x10 c:/program files/microchip/xc32/v4.00/bin/bin/../../lib/gcc/pic32c/8.3.1/../../../../pic32c/lib/thumb/v6-m/nofp\libpic32c.a(data_init.o)
 .debug_ranges  0x00000af0       0x30 c:/program files/microchip/xc32/v4.00/bin/bin/../../lib/gcc/pic32c/8.3.1/../../../../pic32c/lib/thumb/v6-m/nofp\libc-musl.a(__libc_start_main.o)
 .debug_ranges  0x00000b20       0x18 c:/program files/microchip/xc32/v4.00/bin/bin/../../lib/gcc/pic32c/8.3.1/../../../../pic32c/lib/thumb/v6-m/nofp\libc-musl.a(__sio_sprintf_fs.o)
 .debug_ranges  0x00000b38       0x10 c:/program files/microchip/xc32/v4.00/bin/bin/../../lib/gcc/pic32c/8.3.1/../../../../pic32c/lib/thumb/v6-m/nofp\libc-musl.a(__fmt_fp.o)
 .debug_ranges  0x00000b48       0x10 c:/program files/microchip/xc32/v4.00/bin/bin/../../lib/gcc/pic32c/8.3.1/../../../../pic32c/lib/thumb/v6-m/nofp\libc-musl.a(__fmt_s.o)
 .debug_ranges  0x00000b58       0x58 c:/program files/microchip/xc32/v4.00/bin/bin/../../lib/gcc/pic32c/8.3.1/../../../../pic32c/lib/thumb/v6-m/nofp\libc-musl.a(__printf_core.o)
 .debug_ranges  0x00000bb0       0x10 c:/program files/microchip/xc32/v4.00/bin/bin/../../lib/gcc/pic32c/8.3.1/../../../../pic32c/lib/thumb/v6-m/nofp\libc-musl.a(atoi.o)
 .debug_ranges  0x00000bc0       0x10 c:/program files/microchip/xc32/v4.00/bin/bin/../../lib/gcc/pic32c/8.3.1/../../../../pic32c/lib/thumb/v6-m/nofp\libc-musl.a(memcpy.o)
 .debug_ranges  0x00000bd0       0x10 c:/program files/microchip/xc32/v4.00/bin/bin/../../lib/gcc/pic32c/8.3.1/../../../../pic32c/lib/thumb/v6-m/nofp\libc-musl.a(memset.o)
 .debug_ranges  0x00000be0       0x10 c:/program files/microchip/xc32/v4.00/bin/bin/../../lib/gcc/pic32c/8.3.1/../../../../pic32c/lib/thumb/v6-m/nofp\libc-musl.a(strlen.o)
 .debug_ranges  0x00000bf0       0x10 c:/program files/microchip/xc32/v4.00/bin/bin/../../lib/gcc/pic32c/8.3.1/../../../../pic32c/lib/thumb/v6-m/nofp\libc-musl.a(strcpy.o)
 .debug_ranges  0x00000c00       0x18 c:/program files/microchip/xc32/v4.00/bin/bin/../../lib/gcc/pic32c/8.3.1/../../../../pic32c/lib/thumb/v6-m/nofp\libc-musl.a(tolower.o)
 .debug_ranges  0x00000c18       0x10 c:/program files/microchip/xc32/v4.00/bin/bin/../../lib/gcc/pic32c/8.3.1/../../../../pic32c/lib/thumb/v6-m/nofp\libc-musl.a(__int_vsprintf.o)
 .debug_ranges  0x00000c28       0x10 c:/program files/microchip/xc32/v4.00/bin/bin/../../lib/gcc/pic32c/8.3.1/../../../../pic32c/lib/thumb/v6-m/nofp\libc-musl.a(__pop_float.o)
 .debug_ranges  0x00000c38       0x10 c:/program files/microchip/xc32/v4.00/bin/bin/../../lib/gcc/pic32c/8.3.1/../../../../pic32c/lib/thumb/v6-m/nofp\libc-musl.a(__pop_int.o)
 .debug_ranges  0x00000c48       0x10 c:/program files/microchip/xc32/v4.00/bin/bin/../../lib/gcc/pic32c/8.3.1/../../../../pic32c/lib/thumb/v6-m/nofp\libc-musl.a(__pop_ptr.o)
 .debug_ranges  0x00000c58       0x10 c:/program files/microchip/xc32/v4.00/bin/bin/../../lib/gcc/pic32c/8.3.1/../../../../pic32c/lib/thumb/v6-m/nofp\libc-musl.a(stpcpy.o)
 .debug_ranges  0x00000c68       0x10 c:/program files/microchip/xc32/v4.00/bin/bin/../../lib/gcc/pic32c/8.3.1/../../../../pic32c/lib/thumb/v6-m/nofp\libc-musl.a(__int_vsnprintf.o)
 .debug_ranges  0x00000c78       0x10 c:/program files/microchip/xc32/v4.00/bin/bin/../../lib/gcc/pic32c/8.3.1/../../../../pic32c/lib/thumb/v6-m/nofp\libc-musl.a(__int_vfprintf.o)
 .debug_ranges  0x00000c88       0x30 c:/program files/microchip/xc32/v4.00/bin/bin/../../lib/gcc/pic32c/8.3.1/thumb/v6-m/nofp\libgcc.a(_muldi3.o)

.debug_line     0x00000000     0xe9d2
 .debug_line    0x00000000      0x9b8 build/Trinket_USB_2/production/_ext/2108104030/drv_usbfsv1.o
 .debug_line    0x000009b8     0x1eeb build/Trinket_USB_2/production/_ext/2108104030/drv_usbfsv1_device.o
 .debug_line    0x000028a3      0x380 build/Trinket_USB_2/production/_ext/140414528/plib_adc.o
 .debug_line    0x00002c23      0x1fa build/Trinket_USB_2/production/_ext/1796475310/plib_clock.o
 .debug_line    0x00002e1d       0x6c build/Trinket_USB_2/production/_ext/1798624796/plib_evsys.o
 .debug_line    0x00002e89      0x32d build/Trinket_USB_2/production/_ext/58287938/plib_nvic.o
 .debug_line    0x000031b6      0x2f0 build/Trinket_USB_2/production/_ext/1292982576/plib_nvmctrl.o
 .debug_line    0x000034a6      0x2c8 build/Trinket_USB_2/production/_ext/58341089/plib_port.o
 .debug_line    0x0000376e      0x786 build/Trinket_USB_2/production/_ext/499838197/plib_sercom0_i2c_master.o
 .debug_line    0x00003ef4      0x340 build/Trinket_USB_2/production/_ext/1390003407/plib_tc3.o
 .debug_line    0x00004234      0x2d7 build/Trinket_USB_2/production/_ext/1961919639/sys_int.o
 .debug_line    0x0000450b     0x12a6 build/Trinket_USB_2/production/_ext/1909065425/sys_time.o
 .debug_line    0x000057b1     0x18f2 build/Trinket_USB_2/production/_ext/1390297478/usb_device.o
 .debug_line    0x000070a3      0xcd8 build/Trinket_USB_2/production/_ext/1390297478/usb_device_cdc.o
 .debug_line    0x00007d7b      0x252 build/Trinket_USB_2/production/_ext/1390297478/usb_device_cdc_acm.o
 .debug_line    0x00007fcd      0x633 build/Trinket_USB_2/production/_ext/1189347772/initialization.o
 .debug_line    0x00008600      0x365 build/Trinket_USB_2/production/_ext/1189347772/interrupts.o
 .debug_line    0x00008965      0x366 build/Trinket_USB_2/production/_ext/1189347772/exceptions.o
 .debug_line    0x00008ccb      0x15f build/Trinket_USB_2/production/_ext/1189347772/startup_xc32.o
 .debug_line    0x00008e2a      0x352 build/Trinket_USB_2/production/_ext/1189347772/usb_device_init_data.o
 .debug_line    0x0000917c      0x367 build/Trinket_USB_2/production/_ext/1189347772/tasks.o
 .debug_line    0x000094e3      0x354 build/Trinket_USB_2/production/_ext/1360937237/main.o
 .debug_line    0x00009837      0x8e2 build/Trinket_USB_2/production/_ext/1360937237/app_usb.o
 .debug_line    0x0000a119      0x189 build/Trinket_USB_2/production/_ext/1360937237/i2c.o
 .debug_line    0x0000a2a2      0xb4f build/Trinket_USB_2/production/_ext/1360937237/ms8607.o
 .debug_line    0x0000adf1      0x132 c:/program files/microchip/xc32/v4.00/bin/bin/../../lib/gcc/pic32c/8.3.1/../../../../pic32c/lib/thumb/v6-m/nofp\libpic32c.a(data_init.o)
 .debug_line    0x0000af23      0x241 c:/program files/microchip/xc32/v4.00/bin/bin/../../lib/gcc/pic32c/8.3.1/../../../../pic32c/lib/thumb/v6-m/nofp\libc-musl.a(__libc_start_main.o)
 .debug_line    0x0000b164      0x1ad c:/program files/microchip/xc32/v4.00/bin/bin/../../lib/gcc/pic32c/8.3.1/../../../../pic32c/lib/thumb/v6-m/nofp\libc-musl.a(__errno_location.o)
 .debug_line    0x0000b311      0x132 c:/program files/microchip/xc32/v4.00/bin/bin/../../lib/gcc/pic32c/8.3.1/../../../../pic32c/lib/thumb/v6-m/nofp\libc-musl.a(libc.o)
 .debug_line    0x0000b443      0x22f c:/program files/microchip/xc32/v4.00/bin/bin/../../lib/gcc/pic32c/8.3.1/../../../../pic32c/lib/thumb/v6-m/nofp\libc-musl.a(__sio_sprintf_fs.o)
 .debug_line    0x0000b672      0x6ee c:/program files/microchip/xc32/v4.00/bin/bin/../../lib/gcc/pic32c/8.3.1/../../../../pic32c/lib/thumb/v6-m/nofp\libc-musl.a(__fmt_fp.o)
 .debug_line    0x0000bd60      0x2b3 c:/program files/microchip/xc32/v4.00/bin/bin/../../lib/gcc/pic32c/8.3.1/../../../../pic32c/lib/thumb/v6-m/nofp\libc-musl.a(__fmt_s.o)
 .debug_line    0x0000c013      0x76e c:/program files/microchip/xc32/v4.00/bin/bin/../../lib/gcc/pic32c/8.3.1/../../../../pic32c/lib/thumb/v6-m/nofp\libc-musl.a(__printf_core.o)
 .debug_line    0x0000c781      0x183 c:/program files/microchip/xc32/v4.00/bin/bin/../../lib/gcc/pic32c/8.3.1/../../../../pic32c/lib/thumb/v6-m/nofp\libc-musl.a(atoi.o)
 .debug_line    0x0000c904       0xf5 c:/program files/microchip/xc32/v4.00/bin/bin/../../lib/gcc/pic32c/8.3.1/../../../../pic32c/lib/thumb/v6-m/nofp\libc-musl.a(memcpy.o)
 .debug_line    0x0000c9f9       0xe9 c:/program files/microchip/xc32/v4.00/bin/bin/../../lib/gcc/pic32c/8.3.1/../../../../pic32c/lib/thumb/v6-m/nofp\libc-musl.a(memset.o)
 .debug_line    0x0000cae2       0xf0 c:/program files/microchip/xc32/v4.00/bin/bin/../../lib/gcc/pic32c/8.3.1/../../../../pic32c/lib/thumb/v6-m/nofp\libc-musl.a(strlen.o)
 .debug_line    0x0000cbd2       0xba c:/program files/microchip/xc32/v4.00/bin/bin/../../lib/gcc/pic32c/8.3.1/../../../../pic32c/lib/thumb/v6-m/nofp\libc-musl.a(strcpy.o)
 .debug_line    0x0000cc8c      0x1e1 c:/program files/microchip/xc32/v4.00/bin/bin/../../lib/gcc/pic32c/8.3.1/../../../../pic32c/lib/thumb/v6-m/nofp\libc-musl.a(tolower.o)
 .debug_line    0x0000ce6d      0x19f c:/program files/microchip/xc32/v4.00/bin/bin/../../lib/gcc/pic32c/8.3.1/../../../../pic32c/lib/thumb/v6-m/nofp\libc-musl.a(__environ.o)
 .debug_line    0x0000d00c      0x1e5 c:/program files/microchip/xc32/v4.00/bin/bin/../../lib/gcc/pic32c/8.3.1/../../../../pic32c/lib/thumb/v6-m/nofp\libc-musl.a(__int_vsprintf.o)
 .debug_line    0x0000d1f1      0x1f8 c:/program files/microchip/xc32/v4.00/bin/bin/../../lib/gcc/pic32c/8.3.1/../../../../pic32c/lib/thumb/v6-m/nofp\libc-musl.a(__pop_float.o)
 .debug_line    0x0000d3e9      0x28c c:/program files/microchip/xc32/v4.00/bin/bin/../../lib/gcc/pic32c/8.3.1/../../../../pic32c/lib/thumb/v6-m/nofp\libc-musl.a(__pop_int.o)
 .debug_line    0x0000d675      0x25a c:/program files/microchip/xc32/v4.00/bin/bin/../../lib/gcc/pic32c/8.3.1/../../../../pic32c/lib/thumb/v6-m/nofp\libc-musl.a(__pop_ptr.o)
 .debug_line    0x0000d8cf      0x1d4 c:/program files/microchip/xc32/v4.00/bin/bin/../../lib/gcc/pic32c/8.3.1/../../../../pic32c/lib/thumb/v6-m/nofp\libc-musl.a(stpcpy.o)
 .debug_line    0x0000daa3      0x259 c:/program files/microchip/xc32/v4.00/bin/bin/../../lib/gcc/pic32c/8.3.1/../../../../pic32c/lib/thumb/v6-m/nofp\libc-musl.a(__int_vsnprintf.o)
 .debug_line    0x0000dcfc      0x219 c:/program files/microchip/xc32/v4.00/bin/bin/../../lib/gcc/pic32c/8.3.1/../../../../pic32c/lib/thumb/v6-m/nofp\libc-musl.a(__int_vfprintf.o)
 .debug_line    0x0000df15       0xa8 c:/program files/microchip/xc32/v4.00/bin/bin/../../lib/gcc/pic32c/8.3.1/thumb/v6-m/nofp\libgcc.a(_udivsi3.o)
 .debug_line    0x0000dfbd       0xaf c:/program files/microchip/xc32/v4.00/bin/bin/../../lib/gcc/pic32c/8.3.1/thumb/v6-m/nofp\libgcc.a(_divsi3.o)
 .debug_line    0x0000e06c       0x9c c:/program files/microchip/xc32/v4.00/bin/bin/../../lib/gcc/pic32c/8.3.1/thumb/v6-m/nofp\libgcc.a(_dvmd_tls.o)
 .debug_line    0x0000e108       0xa7 c:/program files/microchip/xc32/v4.00/bin/bin/../../lib/gcc/pic32c/8.3.1/thumb/v6-m/nofp\libgcc.a(_aeabi_uldivmod.o)
 .debug_line    0x0000e1af      0x2f6 c:/program files/microchip/xc32/v4.00/bin/bin/../../lib/gcc/pic32c/8.3.1/thumb/v6-m/nofp\libgcc.a(_muldi3.o)
 .debug_line    0x0000e4a5      0x3d7 c:/program files/microchip/xc32/v4.00/bin/bin/../../lib/gcc/pic32c/8.3.1/thumb/v6-m/nofp\libgcc.a(_udivmoddi4.o)
 .debug_line    0x0000e87c       0xa6 c:/program files/microchip/xc32/v4.00/bin/bin/../../lib/gcc/pic32c/8.3.1/thumb/v6-m/nofp\libgcc.a(_clzdi2.o)
 .debug_line    0x0000e922       0xb0 c:/program files/microchip/xc32/v4.00/bin/bin/../../lib/gcc/pic32c/8.3.1/thumb/v6-m/nofp\libgcc.a(_clzsi2.o)

.debug_str      0x00000000     0x1eb7
 .debug_str     0x00000000      0x325 build/Trinket_USB_2/production/_ext/2108104030/drv_usbfsv1.o
 .debug_str     0x00000325      0x2f4 build/Trinket_USB_2/production/_ext/2108104030/drv_usbfsv1_device.o
 .debug_str     0x00000619       0x19 build/Trinket_USB_2/production/_ext/140414528/plib_adc.o
 .debug_str     0x00000632       0x28 build/Trinket_USB_2/production/_ext/1796475310/plib_clock.o
 .debug_str     0x0000065a        0x0 build/Trinket_USB_2/production/_ext/1798624796/plib_evsys.o
 .debug_str     0x0000065a        0xa build/Trinket_USB_2/production/_ext/58287938/plib_nvic.o
 .debug_str     0x00000664       0x11 build/Trinket_USB_2/production/_ext/1292982576/plib_nvmctrl.o
 .debug_str     0x00000675        0xb build/Trinket_USB_2/production/_ext/58341089/plib_port.o
 .debug_str     0x00000680      0x14a build/Trinket_USB_2/production/_ext/499838197/plib_sercom0_i2c_master.o
 .debug_str     0x000007ca       0xa7 build/Trinket_USB_2/production/_ext/1390003407/plib_tc3.o
 .debug_str     0x00000871       0x32 build/Trinket_USB_2/production/_ext/1961919639/sys_int.o
 .debug_str     0x000008a3      0x140 build/Trinket_USB_2/production/_ext/1909065425/sys_time.o
 .debug_str     0x000009e3      0x2cc build/Trinket_USB_2/production/_ext/1390297478/usb_device.o
 .debug_str     0x00000caf      0x1f5 build/Trinket_USB_2/production/_ext/1390297478/usb_device_cdc.o
 .debug_str     0x00000ea4       0x27 build/Trinket_USB_2/production/_ext/1390297478/usb_device_cdc_acm.o
 .debug_str     0x00000ecb      0x29a build/Trinket_USB_2/production/_ext/1189347772/initialization.o
 .debug_str     0x00001165       0x9c build/Trinket_USB_2/production/_ext/1189347772/interrupts.o
 .debug_str     0x00001201       0x9c build/Trinket_USB_2/production/_ext/1189347772/exceptions.o
 .debug_str     0x0000129d       0x2f build/Trinket_USB_2/production/_ext/1189347772/startup_xc32.o
 .debug_str     0x000012cc       0xd9 build/Trinket_USB_2/production/_ext/1189347772/usb_device_init_data.o
 .debug_str     0x000013a5       0xcd build/Trinket_USB_2/production/_ext/1189347772/tasks.o
 .debug_str     0x00001472       0xb5 build/Trinket_USB_2/production/_ext/1360937237/main.o
 .debug_str     0x00001527      0x272 build/Trinket_USB_2/production/_ext/1360937237/app_usb.o
 .debug_str     0x00001799       0x33 build/Trinket_USB_2/production/_ext/1360937237/i2c.o
 .debug_str     0x000017cc       0xe0 build/Trinket_USB_2/production/_ext/1360937237/ms8607.o
 .debug_str     0x000018ac        0x0 c:/program files/microchip/xc32/v4.00/bin/bin/../../lib/gcc/pic32c/8.3.1/../../../../pic32c/lib/thumb/v6-m/nofp\libpic32c.a(data_init.o)
 .debug_str     0x000018ac        0x0 c:/program files/microchip/xc32/v4.00/bin/bin/../../lib/gcc/pic32c/8.3.1/../../../../pic32c/lib/thumb/v6-m/nofp\libc-musl.a(__libc_start_main.o)
 .debug_str     0x000018ac        0x0 c:/program files/microchip/xc32/v4.00/bin/bin/../../lib/gcc/pic32c/8.3.1/../../../../pic32c/lib/thumb/v6-m/nofp\libc-musl.a(__errno_location.o)
 .debug_str     0x000018ac        0x0 c:/program files/microchip/xc32/v4.00/bin/bin/../../lib/gcc/pic32c/8.3.1/../../../../pic32c/lib/thumb/v6-m/nofp\libc-musl.a(libc.o)
 .debug_str     0x000018ac       0x29 c:/program files/microchip/xc32/v4.00/bin/bin/../../lib/gcc/pic32c/8.3.1/../../../../pic32c/lib/thumb/v6-m/nofp\libc-musl.a(__sio_sprintf_fs.o)
 .debug_str     0x000018d5        0x0 c:/program files/microchip/xc32/v4.00/bin/bin/../../lib/gcc/pic32c/8.3.1/../../../../pic32c/lib/thumb/v6-m/nofp\libc-musl.a(__fmt_fp.o)
 .debug_str     0x000018d5        0x0 c:/program files/microchip/xc32/v4.00/bin/bin/../../lib/gcc/pic32c/8.3.1/../../../../pic32c/lib/thumb/v6-m/nofp\libc-musl.a(__fmt_s.o)
 .debug_str     0x000018d5       0x20 c:/program files/microchip/xc32/v4.00/bin/bin/../../lib/gcc/pic32c/8.3.1/../../../../pic32c/lib/thumb/v6-m/nofp\libc-musl.a(__printf_core.o)
 .debug_str     0x000018f5        0x0 c:/program files/microchip/xc32/v4.00/bin/bin/../../lib/gcc/pic32c/8.3.1/../../../../pic32c/lib/thumb/v6-m/nofp\libc-musl.a(atoi.o)
 .debug_str     0x000018f5        0x0 c:/program files/microchip/xc32/v4.00/bin/bin/../../lib/gcc/pic32c/8.3.1/../../../../pic32c/lib/thumb/v6-m/nofp\libc-musl.a(memcpy.o)
 .debug_str     0x000018f5        0x0 c:/program files/microchip/xc32/v4.00/bin/bin/../../lib/gcc/pic32c/8.3.1/../../../../pic32c/lib/thumb/v6-m/nofp\libc-musl.a(memset.o)
 .debug_str     0x000018f5        0x0 c:/program files/microchip/xc32/v4.00/bin/bin/../../lib/gcc/pic32c/8.3.1/../../../../pic32c/lib/thumb/v6-m/nofp\libc-musl.a(strlen.o)
 .debug_str     0x000018f5        0x9 c:/program files/microchip/xc32/v4.00/bin/bin/../../lib/gcc/pic32c/8.3.1/../../../../pic32c/lib/thumb/v6-m/nofp\libc-musl.a(strcpy.o)
 .debug_str     0x000018fe        0x0 c:/program files/microchip/xc32/v4.00/bin/bin/../../lib/gcc/pic32c/8.3.1/../../../../pic32c/lib/thumb/v6-m/nofp\libc-musl.a(tolower.o)
 .debug_str     0x000018fe        0x0 c:/program files/microchip/xc32/v4.00/bin/bin/../../lib/gcc/pic32c/8.3.1/../../../../pic32c/lib/thumb/v6-m/nofp\libc-musl.a(__environ.o)
 .debug_str     0x000018fe        0xc c:/program files/microchip/xc32/v4.00/bin/bin/../../lib/gcc/pic32c/8.3.1/../../../../pic32c/lib/thumb/v6-m/nofp\libc-musl.a(__int_vsprintf.o)
 .debug_str     0x0000190a        0x0 c:/program files/microchip/xc32/v4.00/bin/bin/../../lib/gcc/pic32c/8.3.1/../../../../pic32c/lib/thumb/v6-m/nofp\libc-musl.a(__pop_float.o)
 .debug_str     0x0000190a        0x0 c:/program files/microchip/xc32/v4.00/bin/bin/../../lib/gcc/pic32c/8.3.1/../../../../pic32c/lib/thumb/v6-m/nofp\libc-musl.a(__pop_int.o)
 .debug_str     0x0000190a        0x0 c:/program files/microchip/xc32/v4.00/bin/bin/../../lib/gcc/pic32c/8.3.1/../../../../pic32c/lib/thumb/v6-m/nofp\libc-musl.a(__pop_ptr.o)
 .debug_str     0x0000190a        0x0 c:/program files/microchip/xc32/v4.00/bin/bin/../../lib/gcc/pic32c/8.3.1/../../../../pic32c/lib/thumb/v6-m/nofp\libc-musl.a(stpcpy.o)
 .debug_str     0x0000190a        0xb c:/program files/microchip/xc32/v4.00/bin/bin/../../lib/gcc/pic32c/8.3.1/../../../../pic32c/lib/thumb/v6-m/nofp\libc-musl.a(__int_vsnprintf.o)
 .debug_str     0x00001915        0xe c:/program files/microchip/xc32/v4.00/bin/bin/../../lib/gcc/pic32c/8.3.1/../../../../pic32c/lib/thumb/v6-m/nofp\libc-musl.a(__int_vfprintf.o)
 .debug_str     0x00001923       0xee c:/program files/microchip/xc32/v4.00/bin/bin/../../lib/gcc/pic32c/8.3.1/thumb/v6-m/nofp\libgcc.a(_udivsi3.o)
 .debug_str     0x00001a11       0xee c:/program files/microchip/xc32/v4.00/bin/bin/../../lib/gcc/pic32c/8.3.1/thumb/v6-m/nofp\libgcc.a(_divsi3.o)
 .debug_str     0x00001aff       0xee c:/program files/microchip/xc32/v4.00/bin/bin/../../lib/gcc/pic32c/8.3.1/thumb/v6-m/nofp\libgcc.a(_dvmd_tls.o)
 .debug_str     0x00001bed       0xee c:/program files/microchip/xc32/v4.00/bin/bin/../../lib/gcc/pic32c/8.3.1/thumb/v6-m/nofp\libgcc.a(_aeabi_uldivmod.o)
 .debug_str     0x00001cdb        0x0 c:/program files/microchip/xc32/v4.00/bin/bin/../../lib/gcc/pic32c/8.3.1/thumb/v6-m/nofp\libgcc.a(_muldi3.o)
 .debug_str     0x00001cdb        0x0 c:/program files/microchip/xc32/v4.00/bin/bin/../../lib/gcc/pic32c/8.3.1/thumb/v6-m/nofp\libgcc.a(_udivmoddi4.o)
 .debug_str     0x00001cdb       0xee c:/program files/microchip/xc32/v4.00/bin/bin/../../lib/gcc/pic32c/8.3.1/thumb/v6-m/nofp\libgcc.a(_clzdi2.o)
 .debug_str     0x00001dc9       0xee c:/program files/microchip/xc32/v4.00/bin/bin/../../lib/gcc/pic32c/8.3.1/thumb/v6-m/nofp\libgcc.a(_clzsi2.o)

.debug_frame    0x00000000     0x1ba0
 .debug_frame   0x00000000      0x128 build/Trinket_USB_2/production/_ext/2108104030/drv_usbfsv1.o
 .debug_frame   0x00000128      0x21c build/Trinket_USB_2/production/_ext/2108104030/drv_usbfsv1_device.o
 .debug_frame   0x00000344       0xd8 build/Trinket_USB_2/production/_ext/140414528/plib_adc.o
 .debug_frame   0x0000041c       0x20 build/Trinket_USB_2/production/_ext/1796475310/plib_clock.o
 .debug_frame   0x0000043c       0x20 build/Trinket_USB_2/production/_ext/1798624796/plib_evsys.o
 .debug_frame   0x0000045c       0x50 build/Trinket_USB_2/production/_ext/58287938/plib_nvic.o
 .debug_frame   0x000004ac       0xd4 build/Trinket_USB_2/production/_ext/1292982576/plib_nvmctrl.o
 .debug_frame   0x00000580       0xcc build/Trinket_USB_2/production/_ext/58341089/plib_port.o
 .debug_frame   0x0000064c       0xe8 build/Trinket_USB_2/production/_ext/499838197/plib_sercom0_i2c_master.o
 .debug_frame   0x00000734       0xd8 build/Trinket_USB_2/production/_ext/1390003407/plib_tc3.o
 .debug_frame   0x0000080c       0x84 build/Trinket_USB_2/production/_ext/1961919639/sys_int.o
 .debug_frame   0x00000890      0x3a0 build/Trinket_USB_2/production/_ext/1909065425/sys_time.o
 .debug_frame   0x00000c30      0x524 build/Trinket_USB_2/production/_ext/1390297478/usb_device.o
 .debug_frame   0x00001154      0x174 build/Trinket_USB_2/production/_ext/1390297478/usb_device_cdc.o
 .debug_frame   0x000012c8       0x28 build/Trinket_USB_2/production/_ext/1390297478/usb_device_cdc_acm.o
 .debug_frame   0x000012f0       0x28 build/Trinket_USB_2/production/_ext/1189347772/initialization.o
 .debug_frame   0x00001318       0x20 build/Trinket_USB_2/production/_ext/1189347772/interrupts.o
 .debug_frame   0x00001338       0x30 build/Trinket_USB_2/production/_ext/1189347772/exceptions.o
 .debug_frame   0x00001368       0x38 build/Trinket_USB_2/production/_ext/1189347772/startup_xc32.o
 .debug_frame   0x000013a0       0x28 build/Trinket_USB_2/production/_ext/1189347772/tasks.o
 .debug_frame   0x000013c8       0x28 build/Trinket_USB_2/production/_ext/1360937237/main.o
 .debug_frame   0x000013f0       0xb0 build/Trinket_USB_2/production/_ext/1360937237/app_usb.o
 .debug_frame   0x000014a0       0x58 build/Trinket_USB_2/production/_ext/1360937237/i2c.o
 .debug_frame   0x000014f8      0x224 build/Trinket_USB_2/production/_ext/1360937237/ms8607.o
 .debug_frame   0x0000171c       0x34 c:/program files/microchip/xc32/v4.00/bin/bin/../../lib/gcc/pic32c/8.3.1/../../../../pic32c/lib/thumb/v6-m/nofp\libpic32c.a(data_init.o)
 .debug_frame   0x00001750       0x38 c:/program files/microchip/xc32/v4.00/bin/bin/../../lib/gcc/pic32c/8.3.1/../../../../pic32c/lib/thumb/v6-m/nofp\libc-musl.a(__libc_start_main.o)
 .debug_frame   0x00001788       0x44 c:/program files/microchip/xc32/v4.00/bin/bin/../../lib/gcc/pic32c/8.3.1/../../../../pic32c/lib/thumb/v6-m/nofp\libc-musl.a(__sio_sprintf_fs.o)
 .debug_frame   0x000017cc       0x30 c:/program files/microchip/xc32/v4.00/bin/bin/../../lib/gcc/pic32c/8.3.1/../../../../pic32c/lib/thumb/v6-m/nofp\libc-musl.a(__fmt_fp.o)
 .debug_frame   0x000017fc       0x30 c:/program files/microchip/xc32/v4.00/bin/bin/../../lib/gcc/pic32c/8.3.1/../../../../pic32c/lib/thumb/v6-m/nofp\libc-musl.a(__fmt_s.o)
 .debug_frame   0x0000182c       0xc0 c:/program files/microchip/xc32/v4.00/bin/bin/../../lib/gcc/pic32c/8.3.1/../../../../pic32c/lib/thumb/v6-m/nofp\libc-musl.a(__printf_core.o)
 .debug_frame   0x000018ec       0x28 c:/program files/microchip/xc32/v4.00/bin/bin/../../lib/gcc/pic32c/8.3.1/../../../../pic32c/lib/thumb/v6-m/nofp\libc-musl.a(atoi.o)
 .debug_frame   0x00001914       0x28 c:/program files/microchip/xc32/v4.00/bin/bin/../../lib/gcc/pic32c/8.3.1/../../../../pic32c/lib/thumb/v6-m/nofp\libc-musl.a(memcpy.o)
 .debug_frame   0x0000193c       0x20 c:/program files/microchip/xc32/v4.00/bin/bin/../../lib/gcc/pic32c/8.3.1/../../../../pic32c/lib/thumb/v6-m/nofp\libc-musl.a(memset.o)
 .debug_frame   0x0000195c       0x20 c:/program files/microchip/xc32/v4.00/bin/bin/../../lib/gcc/pic32c/8.3.1/../../../../pic32c/lib/thumb/v6-m/nofp\libc-musl.a(strlen.o)
 .debug_frame   0x0000197c       0x28 c:/program files/microchip/xc32/v4.00/bin/bin/../../lib/gcc/pic32c/8.3.1/../../../../pic32c/lib/thumb/v6-m/nofp\libc-musl.a(strcpy.o)
 .debug_frame   0x000019a4       0x38 c:/program files/microchip/xc32/v4.00/bin/bin/../../lib/gcc/pic32c/8.3.1/../../../../pic32c/lib/thumb/v6-m/nofp\libc-musl.a(tolower.o)
 .debug_frame   0x000019dc       0x28 c:/program files/microchip/xc32/v4.00/bin/bin/../../lib/gcc/pic32c/8.3.1/../../../../pic32c/lib/thumb/v6-m/nofp\libc-musl.a(__int_vsprintf.o)
 .debug_frame   0x00001a04       0x20 c:/program files/microchip/xc32/v4.00/bin/bin/../../lib/gcc/pic32c/8.3.1/../../../../pic32c/lib/thumb/v6-m/nofp\libc-musl.a(__pop_float.o)
 .debug_frame   0x00001a24       0x2c c:/program files/microchip/xc32/v4.00/bin/bin/../../lib/gcc/pic32c/8.3.1/../../../../pic32c/lib/thumb/v6-m/nofp\libc-musl.a(__pop_int.o)
 .debug_frame   0x00001a50       0x28 c:/program files/microchip/xc32/v4.00/bin/bin/../../lib/gcc/pic32c/8.3.1/../../../../pic32c/lib/thumb/v6-m/nofp\libc-musl.a(__pop_ptr.o)
 .debug_frame   0x00001a78       0x20 c:/program files/microchip/xc32/v4.00/bin/bin/../../lib/gcc/pic32c/8.3.1/../../../../pic32c/lib/thumb/v6-m/nofp\libc-musl.a(stpcpy.o)
 .debug_frame   0x00001a98       0x2c c:/program files/microchip/xc32/v4.00/bin/bin/../../lib/gcc/pic32c/8.3.1/../../../../pic32c/lib/thumb/v6-m/nofp\libc-musl.a(__int_vsnprintf.o)
 .debug_frame   0x00001ac4       0x2c c:/program files/microchip/xc32/v4.00/bin/bin/../../lib/gcc/pic32c/8.3.1/../../../../pic32c/lib/thumb/v6-m/nofp\libc-musl.a(__int_vfprintf.o)
 .debug_frame   0x00001af0       0x20 c:/program files/microchip/xc32/v4.00/bin/bin/../../lib/gcc/pic32c/8.3.1/thumb/v6-m/nofp\libgcc.a(_udivsi3.o)
 .debug_frame   0x00001b10       0x20 c:/program files/microchip/xc32/v4.00/bin/bin/../../lib/gcc/pic32c/8.3.1/thumb/v6-m/nofp\libgcc.a(_divsi3.o)
 .debug_frame   0x00001b30       0x34 c:/program files/microchip/xc32/v4.00/bin/bin/../../lib/gcc/pic32c/8.3.1/thumb/v6-m/nofp\libgcc.a(_muldi3.o)
 .debug_frame   0x00001b64       0x3c c:/program files/microchip/xc32/v4.00/bin/bin/../../lib/gcc/pic32c/8.3.1/thumb/v6-m/nofp\libgcc.a(_udivmoddi4.o)

.note.GNU-stack
                0x00000000        0x0
 .note.GNU-stack
                0x00000000        0x0 c:/program files/microchip/xc32/v4.00/bin/bin/../../lib/gcc/pic32c/8.3.1/../../../../pic32c/lib/thumb/v6-m/nofp\libc-musl.a(__libc_start_main.o)
 .note.GNU-stack
                0x00000000        0x0 c:/program files/microchip/xc32/v4.00/bin/bin/../../lib/gcc/pic32c/8.3.1/../../../../pic32c/lib/thumb/v6-m/nofp\libc-musl.a(__errno_location.o)
 .note.GNU-stack
                0x00000000        0x0 c:/program files/microchip/xc32/v4.00/bin/bin/../../lib/gcc/pic32c/8.3.1/../../../../pic32c/lib/thumb/v6-m/nofp\libc-musl.a(libc.o)
 .note.GNU-stack
                0x00000000        0x0 c:/program files/microchip/xc32/v4.00/bin/bin/../../lib/gcc/pic32c/8.3.1/../../../../pic32c/lib/thumb/v6-m/nofp\libc-musl.a(__sio_sprintf_fs.o)
 .note.GNU-stack
                0x00000000        0x0 c:/program files/microchip/xc32/v4.00/bin/bin/../../lib/gcc/pic32c/8.3.1/../../../../pic32c/lib/thumb/v6-m/nofp\libc-musl.a(__fmt_fp.o)
 .note.GNU-stack
                0x00000000        0x0 c:/program files/microchip/xc32/v4.00/bin/bin/../../lib/gcc/pic32c/8.3.1/../../../../pic32c/lib/thumb/v6-m/nofp\libc-musl.a(__fmt_s.o)
 .note.GNU-stack
                0x00000000        0x0 c:/program files/microchip/xc32/v4.00/bin/bin/../../lib/gcc/pic32c/8.3.1/../../../../pic32c/lib/thumb/v6-m/nofp\libc-musl.a(__printf_core.o)
 .note.GNU-stack
                0x00000000        0x0 c:/program files/microchip/xc32/v4.00/bin/bin/../../lib/gcc/pic32c/8.3.1/../../../../pic32c/lib/thumb/v6-m/nofp\libc-musl.a(atoi.o)
 .note.GNU-stack
                0x00000000        0x0 c:/program files/microchip/xc32/v4.00/bin/bin/../../lib/gcc/pic32c/8.3.1/../../../../pic32c/lib/thumb/v6-m/nofp\libc-musl.a(memcpy.o)
 .note.GNU-stack
                0x00000000        0x0 c:/program files/microchip/xc32/v4.00/bin/bin/../../lib/gcc/pic32c/8.3.1/../../../../pic32c/lib/thumb/v6-m/nofp\libc-musl.a(memset.o)
 .note.GNU-stack
                0x00000000        0x0 c:/program files/microchip/xc32/v4.00/bin/bin/../../lib/gcc/pic32c/8.3.1/../../../../pic32c/lib/thumb/v6-m/nofp\libc-musl.a(strlen.o)
 .note.GNU-stack
                0x00000000        0x0 c:/program files/microchip/xc32/v4.00/bin/bin/../../lib/gcc/pic32c/8.3.1/../../../../pic32c/lib/thumb/v6-m/nofp\libc-musl.a(strcpy.o)
 .note.GNU-stack
                0x00000000        0x0 c:/program files/microchip/xc32/v4.00/bin/bin/../../lib/gcc/pic32c/8.3.1/../../../../pic32c/lib/thumb/v6-m/nofp\libc-musl.a(tolower.o)
 .note.GNU-stack
                0x00000000        0x0 c:/program files/microchip/xc32/v4.00/bin/bin/../../lib/gcc/pic32c/8.3.1/../../../../pic32c/lib/thumb/v6-m/nofp\libc-musl.a(__environ.o)
 .note.GNU-stack
                0x00000000        0x0 c:/program files/microchip/xc32/v4.00/bin/bin/../../lib/gcc/pic32c/8.3.1/../../../../pic32c/lib/thumb/v6-m/nofp\libc-musl.a(__int_vsprintf.o)
 .note.GNU-stack
                0x00000000        0x0 c:/program files/microchip/xc32/v4.00/bin/bin/../../lib/gcc/pic32c/8.3.1/../../../../pic32c/lib/thumb/v6-m/nofp\libc-musl.a(__pop_float.o)
 .note.GNU-stack
                0x00000000        0x0 c:/program files/microchip/xc32/v4.00/bin/bin/../../lib/gcc/pic32c/8.3.1/../../../../pic32c/lib/thumb/v6-m/nofp\libc-musl.a(__pop_int.o)
 .note.GNU-stack
                0x00000000        0x0 c:/program files/microchip/xc32/v4.00/bin/bin/../../lib/gcc/pic32c/8.3.1/../../../../pic32c/lib/thumb/v6-m/nofp\libc-musl.a(__pop_ptr.o)
 .note.GNU-stack
                0x00000000        0x0 c:/program files/microchip/xc32/v4.00/bin/bin/../../lib/gcc/pic32c/8.3.1/../../../../pic32c/lib/thumb/v6-m/nofp\libc-musl.a(stpcpy.o)
 .note.GNU-stack
                0x00000000        0x0 c:/program files/microchip/xc32/v4.00/bin/bin/../../lib/gcc/pic32c/8.3.1/../../../../pic32c/lib/thumb/v6-m/nofp\libc-musl.a(__int_vsnprintf.o)
 .note.GNU-stack
                0x00000000        0x0 c:/program files/microchip/xc32/v4.00/bin/bin/../../lib/gcc/pic32c/8.3.1/../../../../pic32c/lib/thumb/v6-m/nofp\libc-musl.a(__int_vfprintf.o)

.stack          0x20000bf8      0x100
 .stack         0x20000bf8      0x100 stack

.bss.cdcReadBuffer%1
                0x20000000      0x200
 .bss.cdcReadBuffer
                0x20000000      0x200 build/Trinket_USB_2/production/_ext/1360937237/app_usb.o
                0x20000000                cdcReadBuffer

.bss.cdcWriteBuffer%2
                0x20000200      0x200
 .bss.cdcWriteBuffer
                0x20000200      0x200 build/Trinket_USB_2/production/_ext/1360937237/app_usb.o
                0x20000200                cdcWriteBuffer

.bss.gDrvUSBObj%3
                0x20000400      0x134
 .bss.gDrvUSBObj
                0x20000400      0x134 build/Trinket_USB_2/production/_ext/2108104030/drv_usbfsv1.o
                0x20000400                gDrvUSBObj

.bss.usbDeviceInstance%4
                0x20000534       0xec
 .bss.usbDeviceInstance
                0x20000534       0xec build/Trinket_USB_2/production/_ext/1390297478/usb_device.o

.bss.timers%5   0x20000620       0xa0
 .bss.timers    0x20000620       0xa0 build/Trinket_USB_2/production/_ext/1909065425/sys_time.o

.bss.gUSBDeviceCDCIRP%6
                0x200006c0       0x6c
 .bss.gUSBDeviceCDCIRP
                0x200006c0       0x6c build/Trinket_USB_2/production/_ext/1390297478/usb_device_cdc.o
                0x200006c0                gUSBDeviceCDCIRP

.data.gDrvUSBFSV1DeviceInterface%7
                0x2000072c       0x50
 .data.gDrvUSBFSV1DeviceInterface
                0x2000072c       0x50 build/Trinket_USB_2/production/_ext/2108104030/drv_usbfsv1_device.o
                0x2000072c                gDrvUSBFSV1DeviceInterface

.bss%8          0x2000077c       0x50
 .bss           0x2000077c       0x50 c:/program files/microchip/xc32/v4.00/bin/bin/../../lib/gcc/pic32c/8.3.1/../../../../pic32c/lib/thumb/v6-m/nofp\libc-musl.a(libc.o)
                0x2000077c                __progname_full
                0x2000077c                program_invocation_name
                0x20000780                program_invocation_short_name
                0x20000780                __progname
                0x20000784                __sysinfo
                0x20000788                __hwcap
                0x2000078c                __libc

.bss.gUSBDeviceCDCInstance%9
                0x200007cc       0x44
 .bss.gUSBDeviceCDCInstance
                0x200007cc       0x44 build/Trinket_USB_2/production/_ext/1390297478/usb_device_cdc.o
                0x200007cc                gUSBDeviceCDCInstance

.bss.gDrvEP0BufferBank0%10
                0x20000810       0x40
 .bss.gDrvEP0BufferBank0
                0x20000810       0x40 build/Trinket_USB_2/production/_ext/2108104030/drv_usbfsv1_device.o
                0x20000810                gDrvEP0BufferBank0

.bss.gDrvEP0BufferBank1%11
                0x20000850       0x40
 .bss.gDrvEP0BufferBank1
                0x20000850       0x40 build/Trinket_USB_2/production/_ext/2108104030/drv_usbfsv1_device.o
                0x20000850                gDrvEP0BufferBank1

.bss.app_usbData%12
                0x20000890       0x3c
 .bss.app_usbData
                0x20000890       0x3c build/Trinket_USB_2/production/_ext/1360937237/app_usb.o
                0x20000890                app_usbData

.bss.gSystemCounterObj%13
                0x200008cc       0x38
 .bss.gSystemCounterObj
                0x200008cc       0x38 build/Trinket_USB_2/production/_ext/1909065425/sys_time.o

.bss.gDrvUSBEndpointObjects%14
                0x20000904       0x30
 .bss.gDrvUSBEndpointObjects
                0x20000904       0x30 build/Trinket_USB_2/production/_ext/2108104030/drv_usbfsv1_device.o
                0x20000904                gDrvUSBEndpointObjects

.bss.sercom0I2CObj%15
                0x20000934       0x2c
 .bss.sercom0I2CObj
                0x20000934       0x2c build/Trinket_USB_2/production/_ext/499838197/plib_sercom0_i2c_master.o

.bss%16         0x20000960       0x1c
 .bss           0x20000960       0x1c c:/program files/microchip/xc32/v4.00/bin/bin/../../lib/gcc/pic32c/8.3.1/thumb/v6-m/nofp/crtbegin.o

.bss.app_sensorData%17
                0x2000097c       0x10
 .bss.app_sensorData
                0x2000097c       0x10 build/Trinket_USB_2/production/_ext/1360937237/app_usb.o
                0x2000097c                app_sensorData

.bss.eeprom_coeff%18
                0x2000098c       0x10
 .bss.eeprom_coeff
                0x2000098c       0x10 build/Trinket_USB_2/production/_ext/1360937237/ms8607.o

.bss.sysObj%19  0x2000099c        0xc
 .bss.sysObj    0x2000099c        0xc build/Trinket_USB_2/production/_ext/1189347772/initialization.o
                0x2000099c                sysObj

.bss.gUSBDeviceCDCSerialStateResponse%20
                0x200009a8        0xa
 .bss.gUSBDeviceCDCSerialStateResponse
                0x200009a8        0xa build/Trinket_USB_2/production/_ext/1390297478/usb_device_cdc.o
                0x200009a8                gUSBDeviceCDCSerialStateResponse

.bss.TC3_CallbackObject%21
                0x200009b4        0x8
 .bss.TC3_CallbackObject
                0x200009b4        0x8 build/Trinket_USB_2/production/_ext/1390003407/plib_tc3.o
                0x200009b4                TC3_CallbackObject

.bss.humidity%22
                0x200009bc        0x4
 .bss.humidity  0x200009bc        0x4 build/Trinket_USB_2/production/_ext/1360937237/app_usb.o
                0x200009bc                humidity

.bss.pressure%23
                0x200009c0        0x4
 .bss.pressure  0x200009c0        0x4 build/Trinket_USB_2/production/_ext/1360937237/app_usb.o
                0x200009c0                pressure

.bss.temperature%24
                0x200009c4        0x4
 .bss.temperature
                0x200009c4        0x4 build/Trinket_USB_2/production/_ext/1360937237/app_usb.o
                0x200009c4                temperature

.data.hsensor_conversion_time%25
                0x200009c8        0x4
 .data.hsensor_conversion_time
                0x200009c8        0x4 build/Trinket_USB_2/production/_ext/1360937237/ms8607.o
                0x200009c8                hsensor_conversion_time

.bss%26         0x200009cc        0xc
 .bss           0x200009cc        0x4 c:/program files/microchip/xc32/v4.00/bin/bin/../../lib/gcc/pic32c/8.3.1/../../../../pic32c/lib/thumb/v6-m/nofp\libpic32c.a(data_init.o)
 .bss           0x200009d0        0x4 c:/program files/microchip/xc32/v4.00/bin/bin/../../lib/gcc/pic32c/8.3.1/../../../../pic32c/lib/thumb/v6-m/nofp\libc-musl.a(__errno_location.o)
                0x200009d0                __errno_val
 .bss           0x200009d4        0x4 c:/program files/microchip/xc32/v4.00/bin/bin/../../lib/gcc/pic32c/8.3.1/../../../../pic32c/lib/thumb/v6-m/nofp\libc-musl.a(__environ.o)
                0x200009d4                __environ
                0x200009d4                environ
                0x200009d4                ___environ
                0x200009d4                _environ

.bss.gUSBDeviceCdcCommonDataObj%29
                0x200009d8        0x2
 .bss.gUSBDeviceCdcCommonDataObj
                0x200009d8        0x2 build/Trinket_USB_2/production/_ext/1390297478/usb_device_cdc.o
                0x200009d8                gUSBDeviceCdcCommonDataObj

.data.gSysTimeTokenCount%30
                0x200009b2        0x2
 .data.gSysTimeTokenCount
                0x200009b2        0x2 build/Trinket_USB_2/production/_ext/1909065425/sys_time.o

.bss.isTemperatureRead%31
                0x200009da        0x1
 .bss.isTemperatureRead
                0x200009da        0x1 build/Trinket_USB_2/production/_ext/1360937237/app_usb.o

.bss.hsensor_i2c_master_mode%32
                0x200009db        0x1
 .bss.hsensor_i2c_master_mode
                0x200009db        0x1 build/Trinket_USB_2/production/_ext/1360937237/ms8607.o
                0x200009db                hsensor_i2c_master_mode

.bss.psensor_coeff_read%33
                0x200009dc        0x1
 .bss.psensor_coeff_read
                0x200009dc        0x1 build/Trinket_USB_2/production/_ext/1360937237/ms8607.o
                0x200009dc                psensor_coeff_read

.bss.psensor_resolution_osr%34
                0x200009dd        0x1
 .bss.psensor_resolution_osr
                0x200009dd        0x1 build/Trinket_USB_2/production/_ext/1360937237/ms8607.o
                0x200009dd                psensor_resolution_osr

.eh_frame%z1    0x00000000        0x0
 .eh_frame      0x00000000        0x0 c:/program files/microchip/xc32/v4.00/bin/bin/../../lib/gcc/pic32c/8.3.1/thumb/v6-m/nofp/crtbegin.o

.config_00804000.__config_00804000%35
                0x00804000        0x4
 .config_00804000.__config_00804000
                0x00804000        0x4 build/Trinket_USB_2/production/_ext/1189347772/initialization.o
                0x00804000                __config_00804000

.config_00804004.__config_00804004%36
                0x00804004        0x4
 .config_00804004.__config_00804004
                0x00804004        0x4 build/Trinket_USB_2/production/_ext/1189347772/initialization.o
                0x00804004                __config_00804004

.text._DRV_USBFSV1_DEVICE_Tasks_ISR%37
                0x000000d8      0x628
 .text._DRV_USBFSV1_DEVICE_Tasks_ISR
                0x000000d8      0x628 build/Trinket_USB_2/production/_ext/2108104030/drv_usbfsv1_device.o
                0x000000d8                _DRV_USBFSV1_DEVICE_Tasks_ISR

.text.__fmt_fp%38
                0x00000700      0x4bc
 .text.__fmt_fp
                0x00000700      0x4bc c:/program files/microchip/xc32/v4.00/bin/bin/../../lib/gcc/pic32c/8.3.1/../../../../pic32c/lib/thumb/v6-m/nofp\libc-musl.a(__fmt_fp.o)
                0x00000700                __fmt_f_needed
                0x00000700                __fmt_fp

.text.DRV_USBFSV1_DEVICE_IRPSubmit%39
                0x00000bbc      0x3d4
 .text.DRV_USBFSV1_DEVICE_IRPSubmit
                0x00000bbc      0x3d4 build/Trinket_USB_2/production/_ext/2108104030/drv_usbfsv1_device.o
                0x00000bbc                DRV_USBFSV1_DEVICE_IRPSubmit

.text.psensor_read_pressure_and_temperature%40
                0x00000f90      0x380
 .text.psensor_read_pressure_and_temperature
                0x00000f90      0x380 build/Trinket_USB_2/production/_ext/1360937237/ms8607.o
                0x00000f90                psensor_read_pressure_and_temperature

.text.__printf_core%41
                0x00001310      0x324
 .text.__printf_core
                0x00001310      0x324 c:/program files/microchip/xc32/v4.00/bin/bin/../../lib/gcc/pic32c/8.3.1/../../../../pic32c/lib/thumb/v6-m/nofp\libc-musl.a(__printf_core.o)
                0x00001310                __printf_core

.text.APP_USB_Tasks%42
                0x00001634      0x24c
 .text.APP_USB_Tasks
                0x00001634      0x24c build/Trinket_USB_2/production/_ext/1360937237/app_usb.o
                0x00001634                APP_USB_Tasks

.dinit%43       0x00001880      0x200
 .dinit         0x00001880      0x200 data_init

.text%44        0x00001a80      0x1d4
 .text          0x00001a80      0x1d4 c:/program files/microchip/xc32/v4.00/bin/bin/../../lib/gcc/pic32c/8.3.1/thumb/v6-m/nofp\libgcc.a(_divsi3.o)
                0x00001a80                __divsi3
                0x00001a80                __aeabi_idiv
                0x00001c4c                __aeabi_idivmod

.text.__aeabi_dadd%45
                0x00001c54      0x1c8
 .text.__aeabi_dadd
                0x00001c54      0x1c8 c:/program files/microchip/xc32/v4.00/bin/bin/../../lib/gcc/pic32c/8.3.1/../../../../pic32c/lib/thumb/v6-m/nofp\libm-emfloat.a(floatasmops_arm.o)
                0x00001c54                __aeabi_dadd

.text.SERCOM0_I2C_InterruptHandler%46
                0x00001e1c      0x1ac
 .text.SERCOM0_I2C_InterruptHandler
                0x00001e1c      0x1ac build/Trinket_USB_2/production/_ext/499838197/plib_sercom0_i2c_master.o
                0x00001e1c                SERCOM0_I2C_InterruptHandler

.text%47        0x00001fc8      0x1a4
 .text          0x00001fc8      0x1a4 c:/program files/microchip/xc32/v4.00/bin/bin/../../lib/gcc/pic32c/8.3.1/thumb/v6-m/nofp\libgcc.a(_udivmoddi4.o)
                0x00001fc8                __udivmoddi4

.text.DRV_USBFSV1_DEVICE_EndpointEnable%48
                0x0000216c      0x194
 .text.DRV_USBFSV1_DEVICE_EndpointEnable
                0x0000216c      0x194 build/Trinket_USB_2/production/_ext/2108104030/drv_usbfsv1_device.o
                0x0000216c                DRV_USBFSV1_DEVICE_EndpointEnable

.text.__aeabi_dmul_aux%49
                0x00002300      0x18a
 .text.__aeabi_dmul_aux
                0x00002300      0x18a c:/program files/microchip/xc32/v4.00/bin/bin/../../lib/gcc/pic32c/8.3.1/../../../../pic32c/lib/thumb/v6-m/nofp\libm-emfloat.a(floatasmops_arm.o)
                0x00002338                __aeabi_dmul

.text.DRV_USBFSV1_DEVICE_EndpointDisable%50
                0x0000248c      0x180
 .text.DRV_USBFSV1_DEVICE_EndpointDisable
                0x0000248c      0x180 build/Trinket_USB_2/production/_ext/2108104030/drv_usbfsv1_device.o
                0x0000248c                DRV_USBFSV1_DEVICE_EndpointDisable

.text._USB_DEVICE_ProcessStandardDeviceSetRequests%51
                0x0000260c      0x142
 .text._USB_DEVICE_ProcessStandardDeviceSetRequests
                0x0000260c      0x142 build/Trinket_USB_2/production/_ext/1390297478/usb_device.o
                0x0000260c                _USB_DEVICE_ProcessStandardDeviceSetRequests

.text.__aeabi_fadd%52
                0x00002750      0x13c
 .text.__aeabi_fadd
                0x00002750      0x13c c:/program files/microchip/xc32/v4.00/bin/bin/../../lib/gcc/pic32c/8.3.1/../../../../pic32c/lib/thumb/v6-m/nofp\libm-emfloat.a(floatasmops_arm.o)
                0x00002750                __aeabi_fadd

.text.USB_DEVICE_CDC_Write%53
                0x0000288c      0x130
 .text.USB_DEVICE_CDC_Write
                0x0000288c      0x130 build/Trinket_USB_2/production/_ext/1390297478/usb_device_cdc.o
                0x0000288c                USB_DEVICE_CDC_Write

.text.DRV_USBFSV1_Initialize%54
                0x000029bc      0x124
 .text.DRV_USBFSV1_Initialize
                0x000029bc      0x124 build/Trinket_USB_2/production/_ext/2108104030/drv_usbfsv1.o
                0x000029bc                DRV_USBFSV1_Initialize

.text.DRV_USBFSV1_DEVICE_EndpointStallClear%55
                0x00002ae0      0x120
 .text.DRV_USBFSV1_DEVICE_EndpointStallClear
                0x00002ae0      0x120 build/Trinket_USB_2/production/_ext/2108104030/drv_usbfsv1_device.o
                0x00002ae0                DRV_USBFSV1_DEVICE_EndpointStallClear

.text._USB_DEVICE_ControlTransferHandler%56
                0x00002c00      0x11c
 .text._USB_DEVICE_ControlTransferHandler
                0x00002c00      0x11c build/Trinket_USB_2/production/_ext/1390297478/usb_device.o
                0x00002c00                _USB_DEVICE_ControlTransferHandler

.text._USB_DEVICE_EventHandler%57
                0x00002d1c      0x114
 .text._USB_DEVICE_EventHandler
                0x00002d1c      0x114 build/Trinket_USB_2/production/_ext/1390297478/usb_device.o
                0x00002d1c                _USB_DEVICE_EventHandler

.text%58        0x00002e30      0x114
 .text          0x00002e30      0x114 c:/program files/microchip/xc32/v4.00/bin/bin/../../lib/gcc/pic32c/8.3.1/thumb/v6-m/nofp\libgcc.a(_udivsi3.o)
                0x00002e30                __aeabi_uidiv
                0x00002e30                __udivsi3
                0x00002f3c                __aeabi_uidivmod

.text.DRV_USBFSV1_DEVICE_EndpointStall%59
                0x00002f44      0x104
 .text.DRV_USBFSV1_DEVICE_EndpointStall
                0x00002f44      0x104 build/Trinket_USB_2/production/_ext/2108104030/drv_usbfsv1_device.o
                0x00002f44                DRV_USBFSV1_DEVICE_EndpointStall

.text.ms8607_read_temperature_pressure_humidity%60
                0x00003048      0x104
 .text.ms8607_read_temperature_pressure_humidity
                0x00003048      0x104 build/Trinket_USB_2/production/_ext/1360937237/ms8607.o
                0x00003048                ms8607_read_temperature_pressure_humidity

.text.USB_DEVICE_CDC_Read%61
                0x0000314c      0x100
 .text.USB_DEVICE_CDC_Read
                0x0000314c      0x100 build/Trinket_USB_2/production/_ext/1390297478/usb_device_cdc.o
                0x0000314c                USB_DEVICE_CDC_Read

.text.USB_DEVICE_Initialize%62
                0x0000324c       0xfc
 .text.USB_DEVICE_Initialize
                0x0000324c       0xfc build/Trinket_USB_2/production/_ext/1390297478/usb_device.o
                0x0000324c                USB_DEVICE_Initialize

.text._USB_DEVICE_ProcessStandardDeviceGetRequests%63
                0x00003348       0xfc
 .text._USB_DEVICE_ProcessStandardDeviceGetRequests
                0x00003348       0xfc build/Trinket_USB_2/production/_ext/1390297478/usb_device.o
                0x00003348                _USB_DEVICE_ProcessStandardDeviceGetRequests

.text._USB_DEVICE_Ep0ReceiveCompleteCallback%64
                0x00003444       0xf8
 .text._USB_DEVICE_Ep0ReceiveCompleteCallback
                0x00003444       0xf8 build/Trinket_USB_2/production/_ext/1390297478/usb_device.o
                0x00003444                _USB_DEVICE_Ep0ReceiveCompleteCallback

.text.USB_DEVICE_Tasks%65
                0x0000353c       0xe8
 .text.USB_DEVICE_Tasks
                0x0000353c       0xe8 build/Trinket_USB_2/production/_ext/1390297478/usb_device.o
                0x0000353c                USB_DEVICE_Tasks

.text.SYS_TIME_PLIBCallback%66
                0x00003624       0xe0
 .text.SYS_TIME_PLIBCallback
                0x00003624       0xe0 build/Trinket_USB_2/production/_ext/1909065425/sys_time.o

.text.SYS_TIME_AddToList%67
                0x00003704       0xdc
 .text.SYS_TIME_AddToList
                0x00003704       0xdc build/Trinket_USB_2/production/_ext/1909065425/sys_time.o

.text.DRV_USBFSV1_Tasks%68
                0x000037e0       0xc8
 .text.DRV_USBFSV1_Tasks
                0x000037e0       0xc8 build/Trinket_USB_2/production/_ext/2108104030/drv_usbfsv1.o
                0x000037e0                DRV_USBFSV1_Tasks

.text.__aeabi_ddiv%69
                0x000038a8       0xc4
 .text.__aeabi_ddiv
                0x000038a8       0xc4 c:/program files/microchip/xc32/v4.00/bin/bin/../../lib/gcc/pic32c/8.3.1/../../../../pic32c/lib/thumb/v6-m/nofp\libm-emfloat.a(floatasmops_arm.o)
                0x000038a8                __aeabi_ddiv

.text.SYS_TIME_TimerObjectCreate%70
                0x0000396c       0xc0
 .text.SYS_TIME_TimerObjectCreate
                0x0000396c       0xc0 build/Trinket_USB_2/production/_ext/1909065425/sys_time.o

.text.SYS_TIME_HwTimerCompareUpdate%71
                0x00003a2c       0xbc
 .text.SYS_TIME_HwTimerCompareUpdate
                0x00003a2c       0xbc build/Trinket_USB_2/production/_ext/1909065425/sys_time.o

.text._USB_DEVICE_CDC_Initialization%72
                0x00003ae8       0xb8
 .text._USB_DEVICE_CDC_Initialization
                0x00003ae8       0xb8 build/Trinket_USB_2/production/_ext/1390297478/usb_device_cdc.o
                0x00003ae8                _USB_DEVICE_CDC_Initialization

.text.__aeabi_fmul%73
                0x00003ba0       0xb8
 .text.__aeabi_fmul
                0x00003ba0       0xb8 c:/program files/microchip/xc32/v4.00/bin/bin/../../lib/gcc/pic32c/8.3.1/../../../../pic32c/lib/thumb/v6-m/nofp\libm-emfloat.a(floatasmops_arm.o)
                0x00003ba0                __aeabi_fmul

.text.floor%74  0x00003c58       0xb4
 .text.floor    0x00003c58       0xb4 c:/program files/microchip/xc32/v4.00/bin/bin/../../lib/gcc/pic32c/8.3.1/../../../../pic32c/lib/thumb/v6-m/nofp\libm-emfloat.a(lib_a-_FLOOR.o)
                0x00003c58                floor

.text.CLOCK_Initialize%75
                0x00003d0c       0xac
 .text.CLOCK_Initialize
                0x00003d0c       0xac build/Trinket_USB_2/production/_ext/1796475310/plib_clock.o
                0x00003d0c                CLOCK_Initialize

.text.SYS_TIME_Initialize%76
                0x00003db8       0xac
 .text.SYS_TIME_Initialize
                0x00003db8       0xac build/Trinket_USB_2/production/_ext/1909065425/sys_time.o
                0x00003db8                SYS_TIME_Initialize

.text.DRV_USBFSV1_DEVICE_IRPCancel%77
                0x00003e64       0xa4
 .text.DRV_USBFSV1_DEVICE_IRPCancel
                0x00003e64       0xa4 build/Trinket_USB_2/production/_ext/2108104030/drv_usbfsv1_device.o
                0x00003e64                DRV_USBFSV1_DEVICE_IRPCancel

.text.__pop_int%78
                0x00003f08       0xa0
 .text.__pop_int
                0x00003f08       0xa0 c:/program files/microchip/xc32/v4.00/bin/bin/../../lib/gcc/pic32c/8.3.1/../../../../pic32c/lib/thumb/v6-m/nofp\libc-musl.a(__pop_int.o)
                0x00003f08                __pop_int_needed
                0x00003f08                __pop_int

.text.DRV_USBFSV1_DEVICE_IRPCancelAll%79
                0x00003fa8       0x9c
 .text.DRV_USBFSV1_DEVICE_IRPCancelAll
                0x00003fa8       0x9c build/Trinket_USB_2/production/_ext/2108104030/drv_usbfsv1_device.o
                0x00003fa8                DRV_USBFSV1_DEVICE_IRPCancelAll

.text.__aeabi_fdiv%80
                0x00004044       0x94
 .text.__aeabi_fdiv
                0x00004044       0x94 c:/program files/microchip/xc32/v4.00/bin/bin/../../lib/gcc/pic32c/8.3.1/../../../../pic32c/lib/thumb/v6-m/nofp\libm-emfloat.a(floatasmops_arm.o)
                0x00004044                __aeabi_fdiv

.rodata._USB_DEVICE_CDC_ACMSetUpPacketHandler%81
                0x000040d8       0x90
 .rodata._USB_DEVICE_CDC_ACMSetUpPacketHandler
                0x000040d8       0x90 build/Trinket_USB_2/production/_ext/1390297478/usb_device_cdc_acm.o

.text.__pic32c_data_initialization%82
                0x00004168       0x90
 .text.__pic32c_data_initialization
                0x00004168       0x90 c:/program files/microchip/xc32/v4.00/bin/bin/../../lib/gcc/pic32c/8.3.1/../../../../pic32c/lib/thumb/v6-m/nofp\libpic32c.a(data_init.o)
                0x00004168                __pic32c_data_initialization

.text._USB_DEVICE_GetStringDescriptorRequestProcess%83
                0x000041f8       0x8a
 .text._USB_DEVICE_GetStringDescriptorRequestProcess
                0x000041f8       0x8a build/Trinket_USB_2/production/_ext/1390297478/usb_device.o
                0x000041f8                _USB_DEVICE_GetStringDescriptorRequestProcess

.text.DRV_USBFSV1_DEVICE_Detach%84
                0x00004284       0x88
 .text.DRV_USBFSV1_DEVICE_Detach
                0x00004284       0x88 build/Trinket_USB_2/production/_ext/2108104030/drv_usbfsv1_device.o
                0x00004284                DRV_USBFSV1_DEVICE_Detach

.text._USB_DEVICE_ProcessStandardEndpointRequest%85
                0x0000430c       0x86
 .text._USB_DEVICE_ProcessStandardEndpointRequest
                0x0000430c       0x86 build/Trinket_USB_2/production/_ext/1390297478/usb_device.o
                0x0000430c                _USB_DEVICE_ProcessStandardEndpointRequest

.text.ADC_Initialize%86
                0x00004394       0x84
 .text.ADC_Initialize
                0x00004394       0x84 build/Trinket_USB_2/production/_ext/140414528/plib_adc.o
                0x00004394                ADC_Initialize

.text.APP_USB_USBDeviceCDCEventHandler%87
                0x00004418       0x84
 .text.APP_USB_USBDeviceCDCEventHandler
                0x00004418       0x84 build/Trinket_USB_2/production/_ext/1360937237/app_usb.o
                0x00004418                APP_USB_USBDeviceCDCEventHandler

.text.DRV_USBFSV1_Tasks_ISR%88
                0x0000449c       0x7c
 .text.DRV_USBFSV1_Tasks_ISR
                0x0000449c       0x7c build/Trinket_USB_2/production/_ext/2108104030/drv_usbfsv1.o
                0x0000449c                DRV_USBFSV1_Tasks_ISR

.text._USB_DEVICE_ConfigureDevice%89
                0x00004518       0x7c
 .text._USB_DEVICE_ConfigureDevice
                0x00004518       0x7c build/Trinket_USB_2/production/_ext/1390297478/usb_device.o
                0x00004518                _USB_DEVICE_ConfigureDevice

.text.APP_USB_USBDeviceEventHandler%90
                0x00004594       0x7c
 .text.APP_USB_USBDeviceEventHandler
                0x00004594       0x7c build/Trinket_USB_2/production/_ext/1360937237/app_usb.o
                0x00004594                APP_USB_USBDeviceEventHandler

.text.psensor_conversion_and_read_adc%91
                0x00004610       0x7c
 .text.psensor_conversion_and_read_adc
                0x00004610       0x7c build/Trinket_USB_2/production/_ext/1360937237/ms8607.o

.text.__pad%92  0x0000468c       0x78
 .text.__pad    0x0000468c       0x78 c:/program files/microchip/xc32/v4.00/bin/bin/../../lib/gcc/pic32c/8.3.1/../../../../pic32c/lib/thumb/v6-m/nofp\libc-musl.a(__printf_core.o)
                0x0000468c                __pad

.text._USB_DEVICE_CDC_ReadIRPCallback%93
                0x00004704       0x70
 .text._USB_DEVICE_CDC_ReadIRPCallback
                0x00004704       0x70 build/Trinket_USB_2/production/_ext/1390297478/usb_device_cdc.o
                0x00004704                _USB_DEVICE_CDC_ReadIRPCallback

.text._USB_DEVICE_CDC_WriteIRPCallback%94
                0x00004774       0x70
 .text._USB_DEVICE_CDC_WriteIRPCallback
                0x00004774       0x70 build/Trinket_USB_2/production/_ext/1390297478/usb_device_cdc.o
                0x00004774                _USB_DEVICE_CDC_WriteIRPCallback

.text._USB_DEVICE_CDC_ControlTransferHandler%95
                0x000047e4       0x70
 .text._USB_DEVICE_CDC_ControlTransferHandler
                0x000047e4       0x70 build/Trinket_USB_2/production/_ext/1390297478/usb_device_cdc.o
                0x000047e4                _USB_DEVICE_CDC_ControlTransferHandler

.text._USB_DEVICE_Ep0TransmitCompleteCallback%96
                0x00004854       0x68
 .text._USB_DEVICE_Ep0TransmitCompleteCallback
                0x00004854       0x68 build/Trinket_USB_2/production/_ext/1390297478/usb_device.o
                0x00004854                _USB_DEVICE_Ep0TransmitCompleteCallback

.text._USB_DEVICE_CDC_ACMSetUpPacketHandler%97
                0x000048bc       0x68
 .text._USB_DEVICE_CDC_ACMSetUpPacketHandler
                0x000048bc       0x68 build/Trinket_USB_2/production/_ext/1390297478/usb_device_cdc_acm.o
                0x000048bc                _USB_DEVICE_CDC_ACMSetUpPacketHandler

.text.__pop_ptr%98
                0x00004924       0x68
 .text.__pop_ptr
                0x00004924       0x68 c:/program files/microchip/xc32/v4.00/bin/bin/../../lib/gcc/pic32c/8.3.1/../../../../pic32c/lib/thumb/v6-m/nofp\libc-musl.a(__pop_ptr.o)
                0x00004924                __pop_ptr
                0x00004924                __pop_ptr_needed

.text.SYS_Initialize%99
                0x0000498c       0x64
 .text.SYS_Initialize
                0x0000498c       0x64 build/Trinket_USB_2/production/_ext/1189347772/initialization.o
                0x0000498c                SYS_Initialize

.text.__aeabi_d2f%100
                0x000049f0       0x64
 .text.__aeabi_d2f
                0x000049f0       0x64 c:/program files/microchip/xc32/v4.00/bin/bin/../../lib/gcc/pic32c/8.3.1/../../../../pic32c/lib/thumb/v6-m/nofp\libm-emfloat.a(floatasmops_arm.o)
                0x000049f0                __aeabi_d2f

.text.SERCOM0_I2C_Initialize%101
                0x00004a54       0x60
 .text.SERCOM0_I2C_Initialize
                0x00004a54       0x60 build/Trinket_USB_2/production/_ext/499838197/plib_sercom0_i2c_master.o
                0x00004a54                SERCOM0_I2C_Initialize

.text.SYS_TIME_RemoveFromList%102
                0x00004ab4       0x60
 .text.SYS_TIME_RemoveFromList
                0x00004ab4       0x60 build/Trinket_USB_2/production/_ext/1909065425/sys_time.o

.text.SYS_TIME_TimerStart%103
                0x00004b14       0x60
 .text.SYS_TIME_TimerStart
                0x00004b14       0x60 build/Trinket_USB_2/production/_ext/1909065425/sys_time.o
                0x00004b14                SYS_TIME_TimerStart

.text.__libc_start_init%104
                0x00004b74       0x5c
 .text.__libc_start_init
                0x00004b74       0x5c c:/program files/microchip/xc32/v4.00/bin/bin/../../lib/gcc/pic32c/8.3.1/../../../../pic32c/lib/thumb/v6-m/nofp\libc-musl.a(__libc_start_main.o)
                0x00004b74                __libc_init_array

.text.NVIC_Initialize%105
                0x00004bd0       0x58
 .text.NVIC_Initialize
                0x00004bd0       0x58 build/Trinket_USB_2/production/_ext/58287938/plib_nvic.o
                0x00004bd0                NVIC_Initialize

.text.SYS_TIME_CallbackRegisterMS%106
                0x00004c28       0x58
 .text.SYS_TIME_CallbackRegisterMS
                0x00004c28       0x58 build/Trinket_USB_2/production/_ext/1909065425/sys_time.o
                0x00004c28                SYS_TIME_CallbackRegisterMS

.text.SERCOM0_I2C_InitiateTransfer%107
                0x00004c80       0x54
 .text.SERCOM0_I2C_InitiateTransfer
                0x00004c80       0x54 build/Trinket_USB_2/production/_ext/499838197/plib_sercom0_i2c_master.o

.text.SYS_TIME_DelayMS%108
                0x00004cd4       0x54
 .text.SYS_TIME_DelayMS
                0x00004cd4       0x54 build/Trinket_USB_2/production/_ext/1909065425/sys_time.o
                0x00004cd4                SYS_TIME_DelayMS

.text.APP_USB_Initialize%109
                0x00004d28       0x54
 .text.APP_USB_Initialize
                0x00004d28       0x54 build/Trinket_USB_2/production/_ext/1360937237/app_usb.o
                0x00004d28                APP_USB_Initialize

.text%110       0x00004d7c       0x54
 .text          0x00004d7c       0x54 c:/program files/microchip/xc32/v4.00/bin/bin/../../lib/gcc/pic32c/8.3.1/thumb/v6-m/nofp\libgcc.a(_muldi3.o)
                0x00004d7c                __muldi3
                0x00004d7c                __aeabi_lmul

.text._USB_DEVICE_ForwardControlXfrToFunction%111
                0x00004dd0       0x50
 .text._USB_DEVICE_ForwardControlXfrToFunction
                0x00004dd0       0x50 build/Trinket_USB_2/production/_ext/1390297478/usb_device.o
                0x00004dd0                _USB_DEVICE_ForwardControlXfrToFunction

.text.__fmt_s%112
                0x00004e20       0x50
 .text.__fmt_s  0x00004e20       0x50 c:/program files/microchip/xc32/v4.00/bin/bin/../../lib/gcc/pic32c/8.3.1/../../../../pic32c/lib/thumb/v6-m/nofp\libc-musl.a(__fmt_s.o)
                0x00004e20                __fmt_s
                0x00004e20                __fmt_0_needed
                0x00004e20                __fmt_s_needed

.text.__vsnprintf%113
                0x00004e70       0x50
 .text.__vsnprintf
                0x00004e70       0x50 c:/program files/microchip/xc32/v4.00/bin/bin/../../lib/gcc/pic32c/8.3.1/../../../../pic32c/lib/thumb/v6-m/nofp\libc-musl.a(__int_vsnprintf.o)
                0x00004e70                __vsnprintf

.text._USB_DEVICE_DeInitializeAllFunctionDrivers%114
                0x00004ec0       0x4e
 .text._USB_DEVICE_DeInitializeAllFunctionDrivers
                0x00004ec0       0x4e build/Trinket_USB_2/production/_ext/1390297478/usb_device.o
                0x00004ec0                _USB_DEVICE_DeInitializeAllFunctionDrivers

.text._USB_DEVICE_GetFunctionDriverEntryByInterface%115
                0x00004f0e       0x4a
 .text._USB_DEVICE_GetFunctionDriverEntryByInterface
                0x00004f0e       0x4a build/Trinket_USB_2/production/_ext/1390297478/usb_device.o
                0x00004f0e                _USB_DEVICE_GetFunctionDriverEntryByInterface

.text.USB_DEVICE_ControlStatus%116
                0x00004f58       0x4a
 .text.USB_DEVICE_ControlStatus
                0x00004f58       0x4a build/Trinket_USB_2/production/_ext/1390297478/usb_device.o
                0x00004f58                USB_DEVICE_ControlStatus

.text%117       0x00004fa4       0x48
 .text          0x00004fa4       0x48 c:/program files/microchip/xc32/v4.00/bin/bin/../../lib/gcc/pic32c/8.3.1/thumb/v6-m/nofp/crtbegin.o

.text.Reset_Handler%118
                0x00004fec       0x48
 .text.Reset_Handler
                0x00004fec       0x48 build/Trinket_USB_2/production/_ext/1189347772/startup_xc32.o
                0x00004fec                Reset_Handler

.text.USB_DEVICE_ControlSend%119
                0x00005034       0x46
 .text.USB_DEVICE_ControlSend
                0x00005034       0x46 build/Trinket_USB_2/production/_ext/1390297478/usb_device.o
                0x00005034                USB_DEVICE_ControlSend

.text.SYS_TIME_TimerAdd%120
                0x0000507c       0x44
 .text.SYS_TIME_TimerAdd
                0x0000507c       0x44 build/Trinket_USB_2/production/_ext/1909065425/sys_time.o

.rodata.fullSpeedConfigurationDescriptor%121
                0x000050c0       0x44
 .rodata.fullSpeedConfigurationDescriptor
                0x000050c0       0x44 build/Trinket_USB_2/production/_ext/1189347772/usb_device_init_data.o
                0x000050c0                fullSpeedConfigurationDescriptor

.text.__aeabi_f2d%122
                0x00005104       0x44
 .text.__aeabi_f2d
                0x00005104       0x44 c:/program files/microchip/xc32/v4.00/bin/bin/../../lib/gcc/pic32c/8.3.1/../../../../pic32c/lib/thumb/v6-m/nofp\libm-emfloat.a(floatasmops_arm.o)
                0x00005104                __aeabi_f2d

.text.TC3_TimerInitialize%123
                0x00005148       0x40
 .text.TC3_TimerInitialize
                0x00005148       0x40 build/Trinket_USB_2/production/_ext/1390003407/plib_tc3.o
                0x00005148                TC3_TimerInitialize

.text.SYS_TIME_GetTimerObject%124
                0x00005188       0x40
 .text.SYS_TIME_GetTimerObject
                0x00005188       0x40 build/Trinket_USB_2/production/_ext/1909065425/sys_time.o

.text.SYS_TIME_TimerDestroy%125
                0x000051c8       0x40
 .text.SYS_TIME_TimerDestroy
                0x000051c8       0x40 build/Trinket_USB_2/production/_ext/1909065425/sys_time.o
                0x000051c8                SYS_TIME_TimerDestroy

.text._USB_DEVICE_FindEndpoint%126
                0x00005208       0x40
 .text._USB_DEVICE_FindEndpoint
                0x00005208       0x40 build/Trinket_USB_2/production/_ext/1390297478/usb_device.o
                0x00005208                _USB_DEVICE_FindEndpoint

.text.__aeabi_dcmpgt%127
                0x00005248       0x40
 .text.__aeabi_dcmpgt
                0x00005248       0x40 c:/program files/microchip/xc32/v4.00/bin/bin/../../lib/gcc/pic32c/8.3.1/../../../../pic32c/lib/thumb/v6-m/nofp\libm-emfloat.a(floatasmops_arm.o)
                0x00005248                __aeabi_dcmpgt

.text.__aeabi_dcmplt%128
                0x00005288       0x40
 .text.__aeabi_dcmplt
                0x00005288       0x40 c:/program files/microchip/xc32/v4.00/bin/bin/../../lib/gcc/pic32c/8.3.1/../../../../pic32c/lib/thumb/v6-m/nofp\libm-emfloat.a(floatasmops_arm.o)
                0x00005288                __aeabi_dcmplt

.text.atoi%129  0x000052c8       0x40
 .text.atoi     0x000052c8       0x40 c:/program files/microchip/xc32/v4.00/bin/bin/../../lib/gcc/pic32c/8.3.1/../../../../pic32c/lib/thumb/v6-m/nofp\libc-musl.a(atoi.o)
                0x000052c8                atoi

.text%130       0x00005308       0x40
 .text          0x00005308       0x40 c:/program files/microchip/xc32/v4.00/bin/bin/../../lib/gcc/pic32c/8.3.1/thumb/v6-m/nofp\libgcc.a(_aeabi_uldivmod.o)
                0x00005308                __aeabi_uldivmod

.text.PORT_Initialize%131
                0x00005348       0x3c
 .text.PORT_Initialize
                0x00005348       0x3c build/Trinket_USB_2/production/_ext/58341089/plib_port.o
                0x00005348                PORT_Initialize

.text.SYS_INT_SourceDisable%132
                0x00005384       0x3c
 .text.SYS_INT_SourceDisable
                0x00005384       0x3c build/Trinket_USB_2/production/_ext/1961919639/sys_int.o
                0x00005384                SYS_INT_SourceDisable

.text.USB_DEVICE_Open%133
                0x000053c0       0x3c
 .text.USB_DEVICE_Open
                0x000053c0       0x3c build/Trinket_USB_2/production/_ext/1390297478/usb_device.o
                0x000053c0                USB_DEVICE_Open

.text%134       0x000053fc       0x3c
 .text          0x000053fc       0x3c c:/program files/microchip/xc32/v4.00/bin/bin/../../lib/gcc/pic32c/8.3.1/thumb/v6-m/nofp\libgcc.a(_clzsi2.o)
                0x000053fc                __clzsi2

.text._DRV_USBFSV1_DEVICE_Initialize%135
                0x00005438       0x38
 .text._DRV_USBFSV1_DEVICE_Initialize
                0x00005438       0x38 build/Trinket_USB_2/production/_ext/2108104030/drv_usbfsv1_device.o
                0x00005438                _DRV_USBFSV1_DEVICE_Initialize

.text.SERCOM0_I2C_Read%136
                0x00005470       0x38
 .text.SERCOM0_I2C_Read
                0x00005470       0x38 build/Trinket_USB_2/production/_ext/499838197/plib_sercom0_i2c_master.o
                0x00005470                SERCOM0_I2C_Read

.text.SYS_TIME_UpdateTimerList%137
                0x000054a8       0x38
 .text.SYS_TIME_UpdateTimerList
                0x000054a8       0x38 build/Trinket_USB_2/production/_ext/1909065425/sys_time.o

.text._USB_DEVICE_CDC_Deinitialization%138
                0x000054e0       0x38
 .text._USB_DEVICE_CDC_Deinitialization
                0x000054e0       0x38 build/Trinket_USB_2/production/_ext/1390297478/usb_device_cdc.o
                0x000054e0                _USB_DEVICE_CDC_Deinitialization

.text.SERCOM0_I2C_Write%139
                0x00005518       0x34
 .text.SERCOM0_I2C_Write
                0x00005518       0x34 build/Trinket_USB_2/production/_ext/499838197/plib_sercom0_i2c_master.o
                0x00005518                SERCOM0_I2C_Write

.text.SYS_TIME_ResourceLock%140
                0x0000554c       0x34
 .text.SYS_TIME_ResourceLock
                0x0000554c       0x34 build/Trinket_USB_2/production/_ext/1909065425/sys_time.o

.rodata.sd002%141
                0x00005580       0x34
 .rodata.sd002  0x00005580       0x34 build/Trinket_USB_2/production/_ext/1189347772/usb_device_init_data.o
                0x00005580                sd002

.text.__aeabi_d2iz%142
                0x000055b4       0x34
 .text.__aeabi_d2iz
                0x000055b4       0x34 c:/program files/microchip/xc32/v4.00/bin/bin/../../lib/gcc/pic32c/8.3.1/../../../../pic32c/lib/thumb/v6-m/nofp\libm-emfloat.a(floatasmops_arm.o)
                0x000055b4                __aeabi_d2iz

.text.__fmt_state%143
                0x000055e8       0x34
 .text.__fmt_state
                0x000055e8       0x34 c:/program files/microchip/xc32/v4.00/bin/bin/../../lib/gcc/pic32c/8.3.1/../../../../pic32c/lib/thumb/v6-m/nofp\libc-musl.a(__printf_core.o)
                0x000055e8                __fmt_state

.text.SYS_TIME_ResourceUnlock%144
                0x0000561c       0x30
 .text.SYS_TIME_ResourceUnlock
                0x0000561c       0x30 build/Trinket_USB_2/production/_ext/1909065425/sys_time.o

.text.__aeabi_dcmpeq%145
                0x0000564c       0x30
 .text.__aeabi_dcmpeq
                0x0000564c       0x30 c:/program files/microchip/xc32/v4.00/bin/bin/../../lib/gcc/pic32c/8.3.1/../../../../pic32c/lib/thumb/v6-m/nofp\libm-emfloat.a(floatasmops_arm.o)
                0x0000564c                __aeabi_dcmpeq

.text.__aeabi_d2uiz%146
                0x0000567c       0x30
 .text.__aeabi_d2uiz
                0x0000567c       0x30 c:/program files/microchip/xc32/v4.00/bin/bin/../../lib/gcc/pic32c/8.3.1/../../../../pic32c/lib/thumb/v6-m/nofp\libm-emfloat.a(floatasmops_arm.o)
                0x0000567c                __aeabi_d2uiz

.text.__aeabi_ul2f%147
                0x000056ac       0x30
 .text.__aeabi_ul2f
                0x000056ac       0x30 c:/program files/microchip/xc32/v4.00/bin/bin/../../lib/gcc/pic32c/8.3.1/../../../../pic32c/lib/thumb/v6-m/nofp\libm-emfloat.a(floatasmops_arm.o)
                0x000056ac                __aeabi_ul2f

.text.DRV_USBFSV1_DEVICE_EndpointIsEnabled%148
                0x000056dc       0x2e
 .text.DRV_USBFSV1_DEVICE_EndpointIsEnabled
                0x000056dc       0x2e build/Trinket_USB_2/production/_ext/2108104030/drv_usbfsv1_device.o
                0x000056dc                DRV_USBFSV1_DEVICE_EndpointIsEnabled

.text.delay_ms%149
                0x0000570a       0x2e
 .text.delay_ms
                0x0000570a       0x2e build/Trinket_USB_2/production/_ext/1360937237/ms8607.o
                0x0000570a                delay_ms

.text._USB_DEVICE_RedirectControlXfrToClient%150
                0x00005738       0x2c
 .text._USB_DEVICE_RedirectControlXfrToClient
                0x00005738       0x2c build/Trinket_USB_2/production/_ext/1390297478/usb_device.o
                0x00005738                _USB_DEVICE_RedirectControlXfrToClient

.rodata.usbMasterDescriptor%151
                0x00005764       0x2c
 .rodata.usbMasterDescriptor
                0x00005764       0x2c build/Trinket_USB_2/production/_ext/1189347772/usb_device_init_data.o
                0x00005764                usbMasterDescriptor

.rodata.APP_USB_USBDeviceEventHandler%152
                0x00005790       0x2c
 .rodata.APP_USB_USBDeviceEventHandler
                0x00005790       0x2c build/Trinket_USB_2/production/_ext/1360937237/app_usb.o

.text._DRV_USBFSV1_DEVICE_IRPQueueFlush%153
                0x000057bc       0x2a
 .text._DRV_USBFSV1_DEVICE_IRPQueueFlush
                0x000057bc       0x2a build/Trinket_USB_2/production/_ext/2108104030/drv_usbfsv1_device.o
                0x000057bc                _DRV_USBFSV1_DEVICE_IRPQueueFlush

.text.SYS_TIME_TimerPeriodHasExpired%154
                0x000057e6       0x2a
 .text.SYS_TIME_TimerPeriodHasExpired
                0x000057e6       0x2a build/Trinket_USB_2/production/_ext/1909065425/sys_time.o
                0x000057e6                SYS_TIME_TimerPeriodHasExpired

.text.USB_DEVICE_EndpointEnable%155
                0x00005810       0x2a
 .text.USB_DEVICE_EndpointEnable
                0x00005810       0x2a build/Trinket_USB_2/production/_ext/1390297478/usb_device.o
                0x00005810                USB_DEVICE_EndpointEnable

.text.__pop_float%156
                0x0000583a       0x2a
 .text.__pop_float
                0x0000583a       0x2a c:/program files/microchip/xc32/v4.00/bin/bin/../../lib/gcc/pic32c/8.3.1/../../../../pic32c/lib/thumb/v6-m/nofp\libc-musl.a(__pop_float.o)
                0x0000583a                __pop_float_needed
                0x0000583a                __pop_float

.text.DRV_USBFSV1_Open%157
                0x00005864       0x28
 .text.DRV_USBFSV1_Open
                0x00005864       0x28 build/Trinket_USB_2/production/_ext/2108104030/drv_usbfsv1.o
                0x00005864                DRV_USBFSV1_Open

.rodata._USB_DEVICE_EventHandler%158
                0x0000588c       0x28
 .rodata._USB_DEVICE_EventHandler
                0x0000588c       0x28 build/Trinket_USB_2/production/_ext/1390297478/usb_device.o

.text.USB_DEVICE_EventHandlerSet%159
                0x000058b4       0x28
 .text.USB_DEVICE_EventHandlerSet
                0x000058b4       0x28 build/Trinket_USB_2/production/_ext/1390297478/usb_device.o
                0x000058b4                USB_DEVICE_EventHandlerSet

.rodata.sd001%160
                0x000058dc       0x28
 .rodata.sd001  0x000058dc       0x28 build/Trinket_USB_2/production/_ext/1189347772/usb_device_init_data.o
                0x000058dc                sd001

.rodata.usbDevInitData%161
                0x00005904       0x28
 .rodata.usbDevInitData
                0x00005904       0x28 build/Trinket_USB_2/production/_ext/1189347772/usb_device_init_data.o
                0x00005904                usbDevInitData

.text.APP_USB_StateReset%162
                0x0000592c       0x28
 .text.APP_USB_StateReset
                0x0000592c       0x28 build/Trinket_USB_2/production/_ext/1360937237/app_usb.o
                0x0000592c                APP_USB_StateReset

.text.hsensor_write_command%163
                0x00005954       0x28
 .text.hsensor_write_command
                0x00005954       0x28 build/Trinket_USB_2/production/_ext/1360937237/ms8607.o

.text.psensor_write_command%164
                0x0000597c       0x28
 .text.psensor_write_command
                0x0000597c       0x28 build/Trinket_USB_2/production/_ext/1360937237/ms8607.o

.text.__aeabi_i2f%165
                0x000059a4       0x28
 .text.__aeabi_i2f
                0x000059a4       0x28 c:/program files/microchip/xc32/v4.00/bin/bin/../../lib/gcc/pic32c/8.3.1/../../../../pic32c/lib/thumb/v6-m/nofp\libm-emfloat.a(floatasmops_arm.o)
                0x000059a4                __aeabi_i2f

.text.DRV_USBFSV1_DEVICE_EndpointIsStalled%166
                0x000059cc       0x26
 .text.DRV_USBFSV1_DEVICE_EndpointIsStalled
                0x000059cc       0x26 build/Trinket_USB_2/production/_ext/2108104030/drv_usbfsv1_device.o
                0x000059cc                DRV_USBFSV1_DEVICE_EndpointIsStalled

.text.USB_DEVICE_Detach%167
                0x000059f2       0x26
 .text.USB_DEVICE_Detach
                0x000059f2       0x26 build/Trinket_USB_2/production/_ext/1390297478/usb_device.o
                0x000059f2                USB_DEVICE_Detach

.text.USB_DEVICE_IRPSubmit%168
                0x00005a18       0x26
 .text.USB_DEVICE_IRPSubmit
                0x00005a18       0x26 build/Trinket_USB_2/production/_ext/1390297478/usb_device.o
                0x00005a18                USB_DEVICE_IRPSubmit

.text.__string_out%169
                0x00005a3e       0x26
 .text.__string_out
                0x00005a3e       0x26 c:/program files/microchip/xc32/v4.00/bin/bin/../../lib/gcc/pic32c/8.3.1/../../../../pic32c/lib/thumb/v6-m/nofp\libc-musl.a(__printf_core.o)
                0x00005a3e                __out

.text.TC3_TimerInterruptHandler%170
                0x00005a64       0x24
 .text.TC3_TimerInterruptHandler
                0x00005a64       0x24 build/Trinket_USB_2/production/_ext/1390003407/plib_tc3.o
                0x00005a64                TC3_TimerInterruptHandler

.text.SYS_TIME_GetElapsedCount%171
                0x00005a88       0x24
 .text.SYS_TIME_GetElapsedCount
                0x00005a88       0x24 build/Trinket_USB_2/production/_ext/1909065425/sys_time.o

.rodata.drvUSBInit%172
                0x00005aac       0x24
 .rodata.drvUSBInit
                0x00005aac       0x24 build/Trinket_USB_2/production/_ext/1189347772/initialization.o
                0x00005aac                drvUSBInit

.rodata.APP_USB_USBDeviceCDCEventHandler%173
                0x00005ad0       0x24
 .rodata.APP_USB_USBDeviceCDCEventHandler
                0x00005ad0       0x24 build/Trinket_USB_2/production/_ext/1360937237/app_usb.o

.text.USB_DEVICE_Attach%174
                0x00005af4       0x22
 .text.USB_DEVICE_Attach
                0x00005af4       0x22 build/Trinket_USB_2/production/_ext/1390297478/usb_device.o
                0x00005af4                USB_DEVICE_Attach

.text.USB_DEVICE_EndpointDisable%175
                0x00005b16       0x22
 .text.USB_DEVICE_EndpointDisable
                0x00005b16       0x22 build/Trinket_USB_2/production/_ext/1390297478/usb_device.o
                0x00005b16                USB_DEVICE_EndpointDisable

.text.USB_DEVICE_ControlReceive%176
                0x00005b38       0x22
 .text.USB_DEVICE_ControlReceive
                0x00005b38       0x22 build/Trinket_USB_2/production/_ext/1390297478/usb_device.o
                0x00005b38                USB_DEVICE_ControlReceive

.text.USB_DEVICE_IRPCancelAll%177
                0x00005b5a       0x22
 .text.USB_DEVICE_IRPCancelAll
                0x00005b5a       0x22 build/Trinket_USB_2/production/_ext/1390297478/usb_device.o
                0x00005b5a                USB_DEVICE_IRPCancelAll

.text._USB_DEVICE_CDC_EndpointDisable%178
                0x00005b7c       0x22
 .text._USB_DEVICE_CDC_EndpointDisable
                0x00005b7c       0x22 build/Trinket_USB_2/production/_ext/1390297478/usb_device_cdc.o
                0x00005b7c                _USB_DEVICE_CDC_EndpointDisable

.text.DRV_USBFSV1_DEVICE_Attach%179
                0x00005ba0       0x20
 .text.DRV_USBFSV1_DEVICE_Attach
                0x00005ba0       0x20 build/Trinket_USB_2/production/_ext/2108104030/drv_usbfsv1_device.o
                0x00005ba0                DRV_USBFSV1_DEVICE_Attach

.text.TC3_Timer16bitCounterGet%180
                0x00005bc0       0x20
 .text.TC3_Timer16bitCounterGet
                0x00005bc0       0x20 build/Trinket_USB_2/production/_ext/1390003407/plib_tc3.o
                0x00005bc0                TC3_Timer16bitCounterGet

.rodata._USB_DEVICE_ProcessStandardDeviceGetRequests%181
                0x00005be0       0x20
 .rodata._USB_DEVICE_ProcessStandardDeviceGetRequests
                0x00005be0       0x20 build/Trinket_USB_2/production/_ext/1390297478/usb_device.o

.text.USB_DEVICE_CDC_EventHandlerSet%182
                0x00005c00       0x20
 .text.USB_DEVICE_CDC_EventHandlerSet
                0x00005c00       0x20 build/Trinket_USB_2/production/_ext/1390297478/usb_device_cdc.o
                0x00005c00                USB_DEVICE_CDC_EventHandlerSet

.text.__aeabi_l2f%183
                0x00005c20       0x20
 .text.__aeabi_l2f
                0x00005c20       0x20 c:/program files/microchip/xc32/v4.00/bin/bin/../../lib/gcc/pic32c/8.3.1/../../../../pic32c/lib/thumb/v6-m/nofp\libm-emfloat.a(floatasmops_arm.o)
                0x00005c20                __aeabi_l2f

.text.__aeabi_ui2f%184
                0x00005c40       0x20
 .text.__aeabi_ui2f
                0x00005c40       0x20 c:/program files/microchip/xc32/v4.00/bin/bin/../../lib/gcc/pic32c/8.3.1/../../../../pic32c/lib/thumb/v6-m/nofp\libm-emfloat.a(floatasmops_arm.o)
                0x00005c40                __aeabi_ui2f

.text.SYS_TIME_Counter64Update%185
                0x00005c60       0x1c
 .text.SYS_TIME_Counter64Update
                0x00005c60       0x1c build/Trinket_USB_2/production/_ext/1909065425/sys_time.o

.rodata.sysTimePlibAPI%186
                0x00005c7c       0x1c
 .rodata.sysTimePlibAPI
                0x00005c7c       0x1c build/Trinket_USB_2/production/_ext/1189347772/initialization.o
                0x00005c7c                sysTimePlibAPI

.text.SYS_Tasks%187
                0x00005c98       0x1c
 .text.SYS_Tasks
                0x00005c98       0x1c build/Trinket_USB_2/production/_ext/1189347772/tasks.o
                0x00005c98                SYS_Tasks

.rodata.APP_USB_Tasks%188
                0x00005cb4       0x1c
 .rodata.APP_USB_Tasks
                0x00005cb4       0x1c build/Trinket_USB_2/production/_ext/1360937237/app_usb.o

.rodata%189     0x00005cd0       0x1c
 .rodata        0x00005cd0       0x1c c:/program files/microchip/xc32/v4.00/bin/bin/../../lib/gcc/pic32c/8.3.1/../../../../pic32c/lib/thumb/v6-m/nofp\libc-musl.a(__printf_core.o)

.text.ADC_Enable%190
                0x00005cec       0x18
 .text.ADC_Enable
                0x00005cec       0x18 build/Trinket_USB_2/production/_ext/140414528/plib_adc.o
                0x00005cec                ADC_Enable

.text.TC3_TimerStart%191
                0x00005d04       0x18
 .text.TC3_TimerStart
                0x00005d04       0x18 build/Trinket_USB_2/production/_ext/1390003407/plib_tc3.o
                0x00005d04                TC3_TimerStart

.text.TC3_TimerStop%192
                0x00005d1c       0x18
 .text.TC3_TimerStop
                0x00005d1c       0x18 build/Trinket_USB_2/production/_ext/1390003407/plib_tc3.o
                0x00005d1c                TC3_TimerStop

.text.SYS_TIME_DelayIsComplete%193
                0x00005d34       0x18
 .text.SYS_TIME_DelayIsComplete
                0x00005d34       0x18 build/Trinket_USB_2/production/_ext/1909065425/sys_time.o
                0x00005d34                SYS_TIME_DelayIsComplete

.text._USB_DEVICE_ClientHandleValidate%194
                0x00005d4c       0x18
 .text._USB_DEVICE_ClientHandleValidate
                0x00005d4c       0x18 build/Trinket_USB_2/production/_ext/1390297478/usb_device.o
                0x00005d4c                _USB_DEVICE_ClientHandleValidate

.text._USB_DEVICE_CDC_GlobalInitialize%195
                0x00005d64       0x18
 .text._USB_DEVICE_CDC_GlobalInitialize
                0x00005d64       0x18 build/Trinket_USB_2/production/_ext/1390297478/usb_device_cdc.o
                0x00005d64                _USB_DEVICE_CDC_GlobalInitialize

.text.i2cEventHandler%196
                0x00005d7c       0x18
 .text.i2cEventHandler
                0x00005d7c       0x18 build/Trinket_USB_2/production/_ext/1360937237/app_usb.o

.rodata%197     0x00005d94       0x18
 .rodata        0x00005d94       0x18 build/Trinket_USB_2/production/_ext/1360937237/app_usb.o

.text.ms8607_init%198
                0x00005dac       0x18
 .text.ms8607_init
                0x00005dac       0x18 build/Trinket_USB_2/production/_ext/1360937237/ms8607.o
                0x00005dac                ms8607_init

.rodata.psensor_conversion_time%199
                0x00005dc4       0x18
 .rodata.psensor_conversion_time
                0x00005dc4       0x18 build/Trinket_USB_2/production/_ext/1360937237/ms8607.o

.text.__vfprintf%200
                0x00005ddc       0x18
 .text.__vfprintf
                0x00005ddc       0x18 c:/program files/microchip/xc32/v4.00/bin/bin/../../lib/gcc/pic32c/8.3.1/../../../../pic32c/lib/thumb/v6-m/nofp\libc-musl.a(__int_vfprintf.o)
                0x00005ddc                __vfprintf

.text%201       0x00005df4       0x18
 .text          0x00005df4       0x18 c:/program files/microchip/xc32/v4.00/bin/bin/../../lib/gcc/pic32c/8.3.1/thumb/v6-m/nofp\libgcc.a(_clzdi2.o)
                0x00005df4                __clzdi2

.text.i2c_master_read_packet_wait%202
                0x00005e0c       0x16
 .text.i2c_master_read_packet_wait
                0x00005e0c       0x16 build/Trinket_USB_2/production/_ext/1360937237/i2c.o
                0x00005e0c                i2c_master_read_packet_wait

.text.i2c_master_write_packet_wait%203
                0x00005e22       0x16
 .text.i2c_master_write_packet_wait
                0x00005e22       0x16 build/Trinket_USB_2/production/_ext/1360937237/i2c.o
                0x00005e22                i2c_master_write_packet_wait

.text.i2c_master_write_packet_wait_no_stop%204
                0x00005e38       0x16
 .text.i2c_master_write_packet_wait_no_stop
                0x00005e38       0x16 build/Trinket_USB_2/production/_ext/1360937237/i2c.o
                0x00005e38                i2c_master_write_packet_wait_no_stop

.text.__wrap_sprintf%205
                0x00005e4e       0x16
 .text.__wrap_sprintf
                0x00005e4e       0x16 c:/program files/microchip/xc32/v4.00/bin/bin/../../lib/gcc/pic32c/8.3.1/../../../../pic32c/lib/thumb/v6-m/nofp\libc-musl.a(__sio_sprintf_fs.o)
                0x00005e4e                _dsprintf_eEgGs
                0x00005e4e                _sprintf_gGs
                0x00005e4e                _dsprintf_fFs
                0x00005e4e                _dsprintf_fFgGs
                0x00005e4e                _dsprintf_gGs
                0x00005e4e                _dsprintf_eEs
                0x00005e4e                _sprintf_eEfFs
                0x00005e4e                _sprintf_fFgGs
                0x00005e4e                _sprintf_eEs
                0x00005e4e                _dsprintf_eEfFs
                0x00005e4e                _sprintf_fFs
                0x00005e4e                __sprintf_fgG
                0x00005e4e                _sprintf_eEgGs
                0x00005e4e                _sprintf_eEfFgGs
                0x00005e4e                _dsprintf_eEfFgGs

.text.NVIC_INT_Restore%206
                0x00005e64       0x14
 .text.NVIC_INT_Restore
                0x00005e64       0x14 build/Trinket_USB_2/production/_ext/58287938/plib_nvic.o
                0x00005e64                NVIC_INT_Restore

.text.TC3_Timer16bitPeriodSet%207
                0x00005e78       0x14
 .text.TC3_Timer16bitPeriodSet
                0x00005e78       0x14 build/Trinket_USB_2/production/_ext/1390003407/plib_tc3.o
                0x00005e78                TC3_Timer16bitPeriodSet

.text.TC3_Timer16bitCompareSet%208
                0x00005e8c       0x14
 .text.TC3_Timer16bitCompareSet
                0x00005e8c       0x14 build/Trinket_USB_2/production/_ext/1390003407/plib_tc3.o
                0x00005e8c                TC3_Timer16bitCompareSet

.rodata.cdcFunctionDriver%209
                0x00005ea0       0x14
 .rodata.cdcFunctionDriver
                0x00005ea0       0x14 build/Trinket_USB_2/production/_ext/1390297478/usb_device_cdc.o
                0x00005ea0                cdcFunctionDriver

.rodata.deviceDescriptor%210
                0x00005eb4       0x14
 .rodata.deviceDescriptor
                0x00005eb4       0x14 build/Trinket_USB_2/production/_ext/1189347772/usb_device_init_data.o
                0x00005eb4                deviceDescriptor

.text.__vsprintf%211
                0x00005ec8       0x14
 .text.__vsprintf
                0x00005ec8       0x14 c:/program files/microchip/xc32/v4.00/bin/bin/../../lib/gcc/pic32c/8.3.1/../../../../pic32c/lib/thumb/v6-m/nofp\libc-musl.a(__int_vsprintf.o)
                0x00005ec8                __vsprintf

.text.DRV_USBFSV1_Close%212
                0x00005edc       0x12
 .text.DRV_USBFSV1_Close
                0x00005edc       0x12 build/Trinket_USB_2/production/_ext/2108104030/drv_usbfsv1.o
                0x00005edc                DRV_USBFSV1_Close

.text.DRV_USBFSV1_DEVICE_SOFNumberGet%213
                0x00005eee       0x12
 .text.DRV_USBFSV1_DEVICE_SOFNumberGet
                0x00005eee       0x12 build/Trinket_USB_2/production/_ext/2108104030/drv_usbfsv1_device.o
                0x00005eee                DRV_USBFSV1_DEVICE_SOFNumberGet

.text.NVIC_INT_Disable%214
                0x00005f00       0x12
 .text.NVIC_INT_Disable
                0x00005f00       0x12 build/Trinket_USB_2/production/_ext/58287938/plib_nvic.o
                0x00005f00                NVIC_INT_Disable

.text.memcpy%215
                0x00005f12       0x12
 .text.memcpy   0x00005f12       0x12 c:/program files/microchip/xc32/v4.00/bin/bin/../../lib/gcc/pic32c/8.3.1/../../../../pic32c/lib/thumb/v6-m/nofp\libc-musl.a(memcpy.o)
                0x00005f12                memcpy

.text.stpcpy%216
                0x00005f24       0x12
 .text.stpcpy   0x00005f24       0x12 c:/program files/microchip/xc32/v4.00/bin/bin/../../lib/gcc/pic32c/8.3.1/../../../../pic32c/lib/thumb/v6-m/nofp\libc-musl.a(stpcpy.o)
                0x00005f24                __stpcpy
                0x00005f24                stpcpy

.text.DRV_USBFSV1_USB_Handler%217
                0x00005f38       0x10
 .text.DRV_USBFSV1_USB_Handler
                0x00005f38       0x10 build/Trinket_USB_2/production/_ext/2108104030/drv_usbfsv1.o
                0x00005f38                DRV_USBFSV1_USB_Handler

.text.DRV_USBFSV1_ClientEventCallBackSet%218
                0x00005f48       0x10
 .text.DRV_USBFSV1_ClientEventCallBackSet
                0x00005f48       0x10 build/Trinket_USB_2/production/_ext/2108104030/drv_usbfsv1.o
                0x00005f48                DRV_USBFSV1_ClientEventCallBackSet

.text.DRV_USBFSV1_DEVICE_RemoteWakeupStart%219
                0x00005f58       0x10
 .text.DRV_USBFSV1_DEVICE_RemoteWakeupStart
                0x00005f58       0x10 build/Trinket_USB_2/production/_ext/2108104030/drv_usbfsv1_device.o
                0x00005f58                DRV_USBFSV1_DEVICE_RemoteWakeupStart

.text.SERCOM0_I2C_ErrorGet%220
                0x00005f68       0x10
 .text.SERCOM0_I2C_ErrorGet
                0x00005f68       0x10 build/Trinket_USB_2/production/_ext/499838197/plib_sercom0_i2c_master.o
                0x00005f68                SERCOM0_I2C_ErrorGet

.rodata.funcRegistrationTable%221
                0x00005f78       0x10
 .rodata.funcRegistrationTable
                0x00005f78       0x10 build/Trinket_USB_2/production/_ext/1189347772/usb_device_init_data.o
                0x00005f78                funcRegistrationTable

.text.__aeabi_fsub%222
                0x00005f88       0x10
 .text.__aeabi_fsub
                0x00005f88       0x10 c:/program files/microchip/xc32/v4.00/bin/bin/../../lib/gcc/pic32c/8.3.1/../../../../pic32c/lib/thumb/v6-m/nofp\libm-emfloat.a(floatasmops_arm.o)
                0x00005f88                __aeabi_fsub

.rodata%223     0x00005f98       0x10
 .rodata        0x00005f98       0x10 c:/program files/microchip/xc32/v4.00/bin/bin/../../lib/gcc/pic32c/8.3.1/../../../../pic32c/lib/thumb/v6-m/nofp\libc-musl.a(__fmt_fp.o)

.text.memset%224
                0x00005fa8       0x10
 .text.memset   0x00005fa8       0x10 c:/program files/microchip/xc32/v4.00/bin/bin/../../lib/gcc/pic32c/8.3.1/../../../../pic32c/lib/thumb/v6-m/nofp\libc-musl.a(memset.o)
                0x00005fa8                memset

.text.strlen%225
                0x00005fb8       0x10
 .text.strlen   0x00005fb8       0x10 c:/program files/microchip/xc32/v4.00/bin/bin/../../lib/gcc/pic32c/8.3.1/../../../../pic32c/lib/thumb/v6-m/nofp\libc-musl.a(strlen.o)
                0x00005fb8                strlen

.text.fma%226   0x00005fc8       0x10
 .text.fma      0x00005fc8       0x10 c:/program files/microchip/xc32/v4.00/bin/bin/../../lib/gcc/pic32c/8.3.1/../../../../pic32c/lib/thumb/v6-m/nofp\libm-emfloat.a(lib_a-_FMA.o)
                0x00005fc8                fma

.text.DRV_USBFSV1_DEVICE_AddressSet%227
                0x00005fd8        0xe
 .text.DRV_USBFSV1_DEVICE_AddressSet
                0x00005fd8        0xe build/Trinket_USB_2/production/_ext/2108104030/drv_usbfsv1_device.o
                0x00005fd8                DRV_USBFSV1_DEVICE_AddressSet

.text.DRV_USBFSV1_DEVICE_CurrentSpeedGet%228
                0x00005fe6        0xe
 .text.DRV_USBFSV1_DEVICE_CurrentSpeedGet
                0x00005fe6        0xe build/Trinket_USB_2/production/_ext/2108104030/drv_usbfsv1_device.o
                0x00005fe6                DRV_USBFSV1_DEVICE_CurrentSpeedGet

.text.main%229  0x00005ff4        0xe
 .text.main     0x00005ff4        0xe build/Trinket_USB_2/production/_ext/1360937237/main.o
                0x00005ff4                main

.text.tolower%230
                0x00006002        0xe
 .text.tolower  0x00006002        0xe c:/program files/microchip/xc32/v4.00/bin/bin/../../lib/gcc/pic32c/8.3.1/../../../../pic32c/lib/thumb/v6-m/nofp\libc-musl.a(tolower.o)
                0x00006002                tolower

.text.NVMCTRL_Initialize%231
                0x00006010        0xc
 .text.NVMCTRL_Initialize
                0x00006010        0xc build/Trinket_USB_2/production/_ext/1292982576/plib_nvmctrl.o
                0x00006010                NVMCTRL_Initialize

.text.SERCOM0_I2C_CallbackRegister%232
                0x0000601c        0xc
 .text.SERCOM0_I2C_CallbackRegister
                0x0000601c        0xc build/Trinket_USB_2/production/_ext/499838197/plib_sercom0_i2c_master.o
                0x0000601c                SERCOM0_I2C_CallbackRegister

.text.TC3_TimerCallbackRegister%233
                0x00006028        0xc
 .text.TC3_TimerCallbackRegister
                0x00006028        0xc build/Trinket_USB_2/production/_ext/1390003407/plib_tc3.o
                0x00006028                TC3_TimerCallbackRegister

.rodata.cdcInit0%234
                0x00006034        0xc
 .rodata.cdcInit0
                0x00006034        0xc build/Trinket_USB_2/production/_ext/1189347772/usb_device_init_data.o
                0x00006034                cdcInit0

.rodata.stringDescriptors%235
                0x00006040        0xc
 .rodata.stringDescriptors
                0x00006040        0xc build/Trinket_USB_2/production/_ext/1189347772/usb_device_init_data.o
                0x00006040                stringDescriptors

.text.APP_SENSOR_TimerEventHandler%236
                0x0000604c        0xc
 .text.APP_SENSOR_TimerEventHandler
                0x0000604c        0xc build/Trinket_USB_2/production/_ext/1360937237/app_usb.o
                0x0000604c                APP_SENSOR_TimerEventHandler

.text.strcpy%237
                0x00006058        0xc
 .text.strcpy   0x00006058        0xc c:/program files/microchip/xc32/v4.00/bin/bin/../../lib/gcc/pic32c/8.3.1/../../../../pic32c/lib/thumb/v6-m/nofp\libc-musl.a(strcpy.o)
                0x00006058                strcpy

.rodata.gDrvUSBFSV1DeviceEndpointTypeMap%238
                0x00006064        0x8
 .rodata.gDrvUSBFSV1DeviceEndpointTypeMap
                0x00006064        0x8 build/Trinket_USB_2/production/_ext/2108104030/drv_usbfsv1_device.o
                0x00006064                gDrvUSBFSV1DeviceEndpointTypeMap

.text.TC3_TimerFrequencyGet%239
                0x0000606c        0x8
 .text.TC3_TimerFrequencyGet
                0x0000606c        0x8 build/Trinket_USB_2/production/_ext/1390003407/plib_tc3.o
                0x0000606c                TC3_TimerFrequencyGet

.text.SYS_INT_Disable%240
                0x00006074        0x8
 .text.SYS_INT_Disable
                0x00006074        0x8 build/Trinket_USB_2/production/_ext/1961919639/sys_int.o
                0x00006074                SYS_INT_Disable

.text.SYS_INT_Restore%241
                0x0000607c        0x8
 .text.SYS_INT_Restore
                0x0000607c        0x8 build/Trinket_USB_2/production/_ext/1961919639/sys_int.o
                0x0000607c                SYS_INT_Restore

.rodata.sysTimeInitData%242
                0x00006084        0x8
 .rodata.sysTimeInitData
                0x00006084        0x8 build/Trinket_USB_2/production/_ext/1189347772/initialization.o
                0x00006084                sysTimeInitData

.rodata%243     0x0000608c        0x7
 .rodata        0x0000608c        0x7 c:/program files/microchip/xc32/v4.00/bin/bin/../../lib/gcc/pic32c/8.3.1/../../../../pic32c/lib/thumb/v6-m/nofp\libc-musl.a(__fmt_s.o)

.rodata.gDrvUSBFSV1DeviceSpeedMap%244
                0x00006094        0x4
 .rodata.gDrvUSBFSV1DeviceSpeedMap
                0x00006094        0x4 build/Trinket_USB_2/production/_ext/2108104030/drv_usbfsv1_device.o
                0x00006094                gDrvUSBFSV1DeviceSpeedMap

.rodata.fullSpeedConfigDescSet%245
                0x00006098        0x4
 .rodata.fullSpeedConfigDescSet
                0x00006098        0x4 build/Trinket_USB_2/production/_ext/1189347772/usb_device_init_data.o
                0x00006098                fullSpeedConfigDescSet

.rodata.sd000%246
                0x0000609c        0x4
 .rodata.sd000  0x0000609c        0x4 build/Trinket_USB_2/production/_ext/1189347772/usb_device_init_data.o
                0x0000609c                sd000

.text.__dummy_fmt3%247
                0x000060a0        0x4
 .text.__dummy_fmt3
                0x000060a0        0x4 c:/program files/microchip/xc32/v4.00/bin/bin/../../lib/gcc/pic32c/8.3.1/../../../../pic32c/lib/thumb/v6-m/nofp\libc-musl.a(__printf_core.o)
                0x000060a0                __fmt_o
                0x000060a0                __fmt_d
                0x000060a0                __fmt_u

.text.__dummy_fmt4%248
                0x000060a4        0x4
 .text.__dummy_fmt4
                0x000060a4        0x4 c:/program files/microchip/xc32/v4.00/bin/bin/../../lib/gcc/pic32c/8.3.1/../../../../pic32c/lib/thumb/v6-m/nofp\libc-musl.a(__printf_core.o)
                0x000060a4                __fmt_x
                0x000060a4                __fmt_a

.text%249       0x000060a8        0x4
 .text          0x000060a8        0x4 c:/program files/microchip/xc32/v4.00/bin/bin/../../lib/gcc/pic32c/8.3.1/thumb/v6-m/nofp\libgcc.a(_dvmd_tls.o)
                0x000060a8                __aeabi_idiv0
                0x000060a8                __aeabi_ldiv0

.text.DRV_USBFSV1_DEVICE_RemoteWakeupStop%250
                0x0000248a        0x2
 .text.DRV_USBFSV1_DEVICE_RemoteWakeupStop
                0x0000248a        0x2 build/Trinket_USB_2/production/_ext/2108104030/drv_usbfsv1_device.o
                0x0000248a                DRV_USBFSV1_DEVICE_RemoteWakeupStop

.text.EVSYS_Initialize%251
                0x0000274e        0x2
 .text.EVSYS_Initialize
                0x0000274e        0x2 build/Trinket_USB_2/production/_ext/1798624796/plib_evsys.o
                0x0000274e                EVSYS_Initialize

.text.Dummy_Handler%252
                0x00004282        0x2
 .text.Dummy_Handler
                0x00004282        0x2 build/Trinket_USB_2/production/_ext/1189347772/interrupts.o
                0x00004282                SVCall_Handler
                0x00004282                DMAC_Handler
                0x00004282                AC_Handler
                0x00004282                SysTick_Handler
                0x00004282                PendSV_Handler
                0x00004282                SERCOM1_Handler
                0x00004282                ADC_Handler
                0x00004282                TCC1_Handler
                0x00004282                SERCOM2_Handler
                0x00004282                TCC0_Handler
                0x00004282                RTC_Handler
                0x00004282                EIC_Handler
                0x00004282                WDT_Handler
                0x00004282                TC4_Handler
                0x00004282                Dummy_Handler
                0x00004282                PM_Handler
                0x00004282                TCC2_Handler
                0x00004282                EVSYS_Handler
                0x00004282                SERCOM3_Handler
                0x00004282                I2S_Handler
                0x00004282                NVMCTRL_Handler
                0x00004282                DAC_Handler
                0x00004282                PTC_Handler
                0x00004282                TC5_Handler
                0x00004282                SYSCTRL_Handler

.text.NonMaskableInt_Handler%253
                0x00004392        0x2
 .text.NonMaskableInt_Handler
                0x00004392        0x2 build/Trinket_USB_2/production/_ext/1189347772/exceptions.o
                0x00004392                NonMaskableInt_Handler

.text.HardFault_Handler%254
                0x00004fa2        0x2
 .text.HardFault_Handler
                0x00004fa2        0x2 build/Trinket_USB_2/production/_ext/1189347772/exceptions.o
                0x00004fa2                HardFault_Handler

.text.Dummy_App_Func%255
                0x0000507a        0x2
 .text.Dummy_App_Func
                0x0000507a        0x2 build/Trinket_USB_2/production/_ext/1189347772/startup_xc32.o
                0x0000507a                _on_reset
                0x0000507a                _on_bootstrap
                0x0000507a                __xc32_on_reset
                0x0000507a                Dummy_App_Func
                0x0000507a                __xc32_on_bootstrap

.text.__dummy%256
                0x00005b9e        0x2
 .text.__dummy  0x00005b9e        0x2 c:/program files/microchip/xc32/v4.00/bin/bin/../../lib/gcc/pic32c/8.3.1/../../../../pic32c/lib/thumb/v6-m/nofp\libc-musl.a(__libc_start_main.o)
                0x00005b9e                __init_stdio
                0x00005b9e                __init_host
